Archive member included to satisfy reference by file (symbol)

/Applications/STM32CubeIDE.app/Contents/Eclipse/plugins/com.st.stm32cube.ide.mcu.externaltools.gnu-tools-for-stm32.13.3.rel1.macos64_1.0.0.202411102158/tools/bin/../lib/gcc/arm-none-eabi/13.3.1/../../../../arm-none-eabi/lib/thumb/v8-m.main+fp/hard/libc_nano.a(libc_a-exit.o)
                              /Applications/STM32CubeIDE.app/Contents/Eclipse/plugins/com.st.stm32cube.ide.mcu.externaltools.gnu-tools-for-stm32.13.3.rel1.macos64_1.0.0.202411102158/tools/bin/../lib/gcc/arm-none-eabi/13.3.1/../../../../arm-none-eabi/lib/thumb/v8-m.main+fp/hard/crt0.o (exit)
/Applications/STM32CubeIDE.app/Contents/Eclipse/plugins/com.st.stm32cube.ide.mcu.externaltools.gnu-tools-for-stm32.13.3.rel1.macos64_1.0.0.202411102158/tools/bin/../lib/gcc/arm-none-eabi/13.3.1/../../../../arm-none-eabi/lib/thumb/v8-m.main+fp/hard/libc_nano.a(libc_a-findfp.o)
                              /Applications/STM32CubeIDE.app/Contents/Eclipse/plugins/com.st.stm32cube.ide.mcu.externaltools.gnu-tools-for-stm32.13.3.rel1.macos64_1.0.0.202411102158/tools/bin/../lib/gcc/arm-none-eabi/13.3.1/../../../../arm-none-eabi/lib/thumb/v8-m.main+fp/hard/libc_nano.a(libc_a-exit.o) (__stdio_exit_handler)
/Applications/STM32CubeIDE.app/Contents/Eclipse/plugins/com.st.stm32cube.ide.mcu.externaltools.gnu-tools-for-stm32.13.3.rel1.macos64_1.0.0.202411102158/tools/bin/../lib/gcc/arm-none-eabi/13.3.1/../../../../arm-none-eabi/lib/thumb/v8-m.main+fp/hard/libc_nano.a(libc_a-fwalk.o)
                              /Applications/STM32CubeIDE.app/Contents/Eclipse/plugins/com.st.stm32cube.ide.mcu.externaltools.gnu-tools-for-stm32.13.3.rel1.macos64_1.0.0.202411102158/tools/bin/../lib/gcc/arm-none-eabi/13.3.1/../../../../arm-none-eabi/lib/thumb/v8-m.main+fp/hard/libc_nano.a(libc_a-findfp.o) (_fwalk_sglue)
/Applications/STM32CubeIDE.app/Contents/Eclipse/plugins/com.st.stm32cube.ide.mcu.externaltools.gnu-tools-for-stm32.13.3.rel1.macos64_1.0.0.202411102158/tools/bin/../lib/gcc/arm-none-eabi/13.3.1/../../../../arm-none-eabi/lib/thumb/v8-m.main+fp/hard/libc_nano.a(libc_a-memset.o)
                              /Applications/STM32CubeIDE.app/Contents/Eclipse/plugins/com.st.stm32cube.ide.mcu.externaltools.gnu-tools-for-stm32.13.3.rel1.macos64_1.0.0.202411102158/tools/bin/../lib/gcc/arm-none-eabi/13.3.1/../../../../arm-none-eabi/lib/thumb/v8-m.main+fp/hard/crt0.o (memset)
/Applications/STM32CubeIDE.app/Contents/Eclipse/plugins/com.st.stm32cube.ide.mcu.externaltools.gnu-tools-for-stm32.13.3.rel1.macos64_1.0.0.202411102158/tools/bin/../lib/gcc/arm-none-eabi/13.3.1/../../../../arm-none-eabi/lib/thumb/v8-m.main+fp/hard/libc_nano.a(libc_a-errno.o)
                              ./Application/User/Core/syscalls.o (__errno)
/Applications/STM32CubeIDE.app/Contents/Eclipse/plugins/com.st.stm32cube.ide.mcu.externaltools.gnu-tools-for-stm32.13.3.rel1.macos64_1.0.0.202411102158/tools/bin/../lib/gcc/arm-none-eabi/13.3.1/../../../../arm-none-eabi/lib/thumb/v8-m.main+fp/hard/libc_nano.a(libc_a-init.o)
                              /Applications/STM32CubeIDE.app/Contents/Eclipse/plugins/com.st.stm32cube.ide.mcu.externaltools.gnu-tools-for-stm32.13.3.rel1.macos64_1.0.0.202411102158/tools/bin/../lib/gcc/arm-none-eabi/13.3.1/../../../../arm-none-eabi/lib/thumb/v8-m.main+fp/hard/crt0.o (__libc_init_array)
/Applications/STM32CubeIDE.app/Contents/Eclipse/plugins/com.st.stm32cube.ide.mcu.externaltools.gnu-tools-for-stm32.13.3.rel1.macos64_1.0.0.202411102158/tools/bin/../lib/gcc/arm-none-eabi/13.3.1/../../../../arm-none-eabi/lib/thumb/v8-m.main+fp/hard/libc_nano.a(libc_a-lock.o)
                              /Applications/STM32CubeIDE.app/Contents/Eclipse/plugins/com.st.stm32cube.ide.mcu.externaltools.gnu-tools-for-stm32.13.3.rel1.macos64_1.0.0.202411102158/tools/bin/../lib/gcc/arm-none-eabi/13.3.1/../../../../arm-none-eabi/lib/thumb/v8-m.main+fp/hard/libc_nano.a(libc_a-findfp.o) (__retarget_lock_init_recursive)
/Applications/STM32CubeIDE.app/Contents/Eclipse/plugins/com.st.stm32cube.ide.mcu.externaltools.gnu-tools-for-stm32.13.3.rel1.macos64_1.0.0.202411102158/tools/bin/../lib/gcc/arm-none-eabi/13.3.1/../../../../arm-none-eabi/lib/thumb/v8-m.main+fp/hard/libc_nano.a(libc_a-impure.o)
                              /Applications/STM32CubeIDE.app/Contents/Eclipse/plugins/com.st.stm32cube.ide.mcu.externaltools.gnu-tools-for-stm32.13.3.rel1.macos64_1.0.0.202411102158/tools/bin/../lib/gcc/arm-none-eabi/13.3.1/../../../../arm-none-eabi/lib/thumb/v8-m.main+fp/hard/libc_nano.a(libc_a-errno.o) (_impure_ptr)
/Applications/STM32CubeIDE.app/Contents/Eclipse/plugins/com.st.stm32cube.ide.mcu.externaltools.gnu-tools-for-stm32.13.3.rel1.macos64_1.0.0.202411102158/tools/bin/../lib/gcc/arm-none-eabi/13.3.1/../../../../arm-none-eabi/lib/thumb/v8-m.main+fp/hard/libc_nano.a(libc_a-mallocr.o)
                              /Applications/STM32CubeIDE.app/Contents/Eclipse/plugins/com.st.stm32cube.ide.mcu.externaltools.gnu-tools-for-stm32.13.3.rel1.macos64_1.0.0.202411102158/tools/bin/../lib/gcc/arm-none-eabi/13.3.1/../../../../arm-none-eabi/lib/thumb/v8-m.main+fp/hard/libc_nano.a(libc_a-findfp.o) (_malloc_r)
/Applications/STM32CubeIDE.app/Contents/Eclipse/plugins/com.st.stm32cube.ide.mcu.externaltools.gnu-tools-for-stm32.13.3.rel1.macos64_1.0.0.202411102158/tools/bin/../lib/gcc/arm-none-eabi/13.3.1/../../../../arm-none-eabi/lib/thumb/v8-m.main+fp/hard/libc_nano.a(libc_a-fflush.o)
                              /Applications/STM32CubeIDE.app/Contents/Eclipse/plugins/com.st.stm32cube.ide.mcu.externaltools.gnu-tools-for-stm32.13.3.rel1.macos64_1.0.0.202411102158/tools/bin/../lib/gcc/arm-none-eabi/13.3.1/../../../../arm-none-eabi/lib/thumb/v8-m.main+fp/hard/libc_nano.a(libc_a-findfp.o) (_fflush_r)
/Applications/STM32CubeIDE.app/Contents/Eclipse/plugins/com.st.stm32cube.ide.mcu.externaltools.gnu-tools-for-stm32.13.3.rel1.macos64_1.0.0.202411102158/tools/bin/../lib/gcc/arm-none-eabi/13.3.1/../../../../arm-none-eabi/lib/thumb/v8-m.main+fp/hard/libc_nano.a(libc_a-mlock.o)
                              /Applications/STM32CubeIDE.app/Contents/Eclipse/plugins/com.st.stm32cube.ide.mcu.externaltools.gnu-tools-for-stm32.13.3.rel1.macos64_1.0.0.202411102158/tools/bin/../lib/gcc/arm-none-eabi/13.3.1/../../../../arm-none-eabi/lib/thumb/v8-m.main+fp/hard/libc_nano.a(libc_a-mallocr.o) (__malloc_lock)
/Applications/STM32CubeIDE.app/Contents/Eclipse/plugins/com.st.stm32cube.ide.mcu.externaltools.gnu-tools-for-stm32.13.3.rel1.macos64_1.0.0.202411102158/tools/bin/../lib/gcc/arm-none-eabi/13.3.1/../../../../arm-none-eabi/lib/thumb/v8-m.main+fp/hard/libc_nano.a(libc_a-stdio.o)
                              /Applications/STM32CubeIDE.app/Contents/Eclipse/plugins/com.st.stm32cube.ide.mcu.externaltools.gnu-tools-for-stm32.13.3.rel1.macos64_1.0.0.202411102158/tools/bin/../lib/gcc/arm-none-eabi/13.3.1/../../../../arm-none-eabi/lib/thumb/v8-m.main+fp/hard/libc_nano.a(libc_a-findfp.o) (__sread)
/Applications/STM32CubeIDE.app/Contents/Eclipse/plugins/com.st.stm32cube.ide.mcu.externaltools.gnu-tools-for-stm32.13.3.rel1.macos64_1.0.0.202411102158/tools/bin/../lib/gcc/arm-none-eabi/13.3.1/../../../../arm-none-eabi/lib/thumb/v8-m.main+fp/hard/libc_nano.a(libc_a-lseekr.o)
                              /Applications/STM32CubeIDE.app/Contents/Eclipse/plugins/com.st.stm32cube.ide.mcu.externaltools.gnu-tools-for-stm32.13.3.rel1.macos64_1.0.0.202411102158/tools/bin/../lib/gcc/arm-none-eabi/13.3.1/../../../../arm-none-eabi/lib/thumb/v8-m.main+fp/hard/libc_nano.a(libc_a-stdio.o) (_lseek_r)
/Applications/STM32CubeIDE.app/Contents/Eclipse/plugins/com.st.stm32cube.ide.mcu.externaltools.gnu-tools-for-stm32.13.3.rel1.macos64_1.0.0.202411102158/tools/bin/../lib/gcc/arm-none-eabi/13.3.1/../../../../arm-none-eabi/lib/thumb/v8-m.main+fp/hard/libc_nano.a(libc_a-readr.o)
                              /Applications/STM32CubeIDE.app/Contents/Eclipse/plugins/com.st.stm32cube.ide.mcu.externaltools.gnu-tools-for-stm32.13.3.rel1.macos64_1.0.0.202411102158/tools/bin/../lib/gcc/arm-none-eabi/13.3.1/../../../../arm-none-eabi/lib/thumb/v8-m.main+fp/hard/libc_nano.a(libc_a-stdio.o) (_read_r)
/Applications/STM32CubeIDE.app/Contents/Eclipse/plugins/com.st.stm32cube.ide.mcu.externaltools.gnu-tools-for-stm32.13.3.rel1.macos64_1.0.0.202411102158/tools/bin/../lib/gcc/arm-none-eabi/13.3.1/../../../../arm-none-eabi/lib/thumb/v8-m.main+fp/hard/libc_nano.a(libc_a-sbrkr.o)
                              /Applications/STM32CubeIDE.app/Contents/Eclipse/plugins/com.st.stm32cube.ide.mcu.externaltools.gnu-tools-for-stm32.13.3.rel1.macos64_1.0.0.202411102158/tools/bin/../lib/gcc/arm-none-eabi/13.3.1/../../../../arm-none-eabi/lib/thumb/v8-m.main+fp/hard/libc_nano.a(libc_a-mallocr.o) (_sbrk_r)
/Applications/STM32CubeIDE.app/Contents/Eclipse/plugins/com.st.stm32cube.ide.mcu.externaltools.gnu-tools-for-stm32.13.3.rel1.macos64_1.0.0.202411102158/tools/bin/../lib/gcc/arm-none-eabi/13.3.1/../../../../arm-none-eabi/lib/thumb/v8-m.main+fp/hard/libc_nano.a(libc_a-writer.o)
                              /Applications/STM32CubeIDE.app/Contents/Eclipse/plugins/com.st.stm32cube.ide.mcu.externaltools.gnu-tools-for-stm32.13.3.rel1.macos64_1.0.0.202411102158/tools/bin/../lib/gcc/arm-none-eabi/13.3.1/../../../../arm-none-eabi/lib/thumb/v8-m.main+fp/hard/libc_nano.a(libc_a-stdio.o) (_write_r)
/Applications/STM32CubeIDE.app/Contents/Eclipse/plugins/com.st.stm32cube.ide.mcu.externaltools.gnu-tools-for-stm32.13.3.rel1.macos64_1.0.0.202411102158/tools/bin/../lib/gcc/arm-none-eabi/13.3.1/../../../../arm-none-eabi/lib/thumb/v8-m.main+fp/hard/libc_nano.a(libc_a-closer.o)
                              /Applications/STM32CubeIDE.app/Contents/Eclipse/plugins/com.st.stm32cube.ide.mcu.externaltools.gnu-tools-for-stm32.13.3.rel1.macos64_1.0.0.202411102158/tools/bin/../lib/gcc/arm-none-eabi/13.3.1/../../../../arm-none-eabi/lib/thumb/v8-m.main+fp/hard/libc_nano.a(libc_a-stdio.o) (_close_r)
/Applications/STM32CubeIDE.app/Contents/Eclipse/plugins/com.st.stm32cube.ide.mcu.externaltools.gnu-tools-for-stm32.13.3.rel1.macos64_1.0.0.202411102158/tools/bin/../lib/gcc/arm-none-eabi/13.3.1/../../../../arm-none-eabi/lib/thumb/v8-m.main+fp/hard/libc_nano.a(libc_a-reent.o)
                              /Applications/STM32CubeIDE.app/Contents/Eclipse/plugins/com.st.stm32cube.ide.mcu.externaltools.gnu-tools-for-stm32.13.3.rel1.macos64_1.0.0.202411102158/tools/bin/../lib/gcc/arm-none-eabi/13.3.1/../../../../arm-none-eabi/lib/thumb/v8-m.main+fp/hard/libc_nano.a(libc_a-lseekr.o) (errno)
/Applications/STM32CubeIDE.app/Contents/Eclipse/plugins/com.st.stm32cube.ide.mcu.externaltools.gnu-tools-for-stm32.13.3.rel1.macos64_1.0.0.202411102158/tools/bin/../lib/gcc/arm-none-eabi/13.3.1/../../../../arm-none-eabi/lib/thumb/v8-m.main+fp/hard/libc_nano.a(libc_a-freer.o)
                              /Applications/STM32CubeIDE.app/Contents/Eclipse/plugins/com.st.stm32cube.ide.mcu.externaltools.gnu-tools-for-stm32.13.3.rel1.macos64_1.0.0.202411102158/tools/bin/../lib/gcc/arm-none-eabi/13.3.1/../../../../arm-none-eabi/lib/thumb/v8-m.main+fp/hard/libc_nano.a(libc_a-fflush.o) (_free_r)

Discarded input sections

 .text          0x00000000        0x0 /Applications/STM32CubeIDE.app/Contents/Eclipse/plugins/com.st.stm32cube.ide.mcu.externaltools.gnu-tools-for-stm32.13.3.rel1.macos64_1.0.0.202411102158/tools/bin/../lib/gcc/arm-none-eabi/13.3.1/thumb/v8-m.main+fp/hard/crti.o
 .data          0x00000000        0x0 /Applications/STM32CubeIDE.app/Contents/Eclipse/plugins/com.st.stm32cube.ide.mcu.externaltools.gnu-tools-for-stm32.13.3.rel1.macos64_1.0.0.202411102158/tools/bin/../lib/gcc/arm-none-eabi/13.3.1/thumb/v8-m.main+fp/hard/crti.o
 .bss           0x00000000        0x0 /Applications/STM32CubeIDE.app/Contents/Eclipse/plugins/com.st.stm32cube.ide.mcu.externaltools.gnu-tools-for-stm32.13.3.rel1.macos64_1.0.0.202411102158/tools/bin/../lib/gcc/arm-none-eabi/13.3.1/thumb/v8-m.main+fp/hard/crti.o
 .data          0x00000000        0x4 /Applications/STM32CubeIDE.app/Contents/Eclipse/plugins/com.st.stm32cube.ide.mcu.externaltools.gnu-tools-for-stm32.13.3.rel1.macos64_1.0.0.202411102158/tools/bin/../lib/gcc/arm-none-eabi/13.3.1/thumb/v8-m.main+fp/hard/crtbegin.o
 .rodata        0x00000000       0x24 /Applications/STM32CubeIDE.app/Contents/Eclipse/plugins/com.st.stm32cube.ide.mcu.externaltools.gnu-tools-for-stm32.13.3.rel1.macos64_1.0.0.202411102158/tools/bin/../lib/gcc/arm-none-eabi/13.3.1/thumb/v8-m.main+fp/hard/crtbegin.o
 .text          0x00000000       0x7c /Applications/STM32CubeIDE.app/Contents/Eclipse/plugins/com.st.stm32cube.ide.mcu.externaltools.gnu-tools-for-stm32.13.3.rel1.macos64_1.0.0.202411102158/tools/bin/../lib/gcc/arm-none-eabi/13.3.1/../../../../arm-none-eabi/lib/thumb/v8-m.main+fp/hard/crt0.o
 .data          0x00000000        0x0 /Applications/STM32CubeIDE.app/Contents/Eclipse/plugins/com.st.stm32cube.ide.mcu.externaltools.gnu-tools-for-stm32.13.3.rel1.macos64_1.0.0.202411102158/tools/bin/../lib/gcc/arm-none-eabi/13.3.1/../../../../arm-none-eabi/lib/thumb/v8-m.main+fp/hard/crt0.o
 .bss           0x00000000        0x0 /Applications/STM32CubeIDE.app/Contents/Eclipse/plugins/com.st.stm32cube.ide.mcu.externaltools.gnu-tools-for-stm32.13.3.rel1.macos64_1.0.0.202411102158/tools/bin/../lib/gcc/arm-none-eabi/13.3.1/../../../../arm-none-eabi/lib/thumb/v8-m.main+fp/hard/crt0.o
 .ARM.extab     0x00000000        0x0 /Applications/STM32CubeIDE.app/Contents/Eclipse/plugins/com.st.stm32cube.ide.mcu.externaltools.gnu-tools-for-stm32.13.3.rel1.macos64_1.0.0.202411102158/tools/bin/../lib/gcc/arm-none-eabi/13.3.1/../../../../arm-none-eabi/lib/thumb/v8-m.main+fp/hard/crt0.o
 .ARM.exidx     0x00000000       0x10 /Applications/STM32CubeIDE.app/Contents/Eclipse/plugins/com.st.stm32cube.ide.mcu.externaltools.gnu-tools-for-stm32.13.3.rel1.macos64_1.0.0.202411102158/tools/bin/../lib/gcc/arm-none-eabi/13.3.1/../../../../arm-none-eabi/lib/thumb/v8-m.main+fp/hard/crt0.o
 .ARM.attributes
                0x00000000       0x24 /Applications/STM32CubeIDE.app/Contents/Eclipse/plugins/com.st.stm32cube.ide.mcu.externaltools.gnu-tools-for-stm32.13.3.rel1.macos64_1.0.0.202411102158/tools/bin/../lib/gcc/arm-none-eabi/13.3.1/../../../../arm-none-eabi/lib/thumb/v8-m.main+fp/hard/crt0.o
 .text          0x00000000        0x0 ./Application/User/Core/main.o
 .data          0x00000000        0x0 ./Application/User/Core/main.o
 .bss           0x00000000        0x0 ./Application/User/Core/main.o
 .text.HAL_GPIO_EXTI_Falling_Callback
                0x00000000        0xc ./Application/User/Core/main.o
 .text.Error_Handler
                0x00000000        0x4 ./Application/User/Core/main.o
 .text          0x00000000        0x0 ./Application/User/Core/stm32h5xx_hal_msp.o
 .data          0x00000000        0x0 ./Application/User/Core/stm32h5xx_hal_msp.o
 .bss           0x00000000        0x0 ./Application/User/Core/stm32h5xx_hal_msp.o
 .text          0x00000000        0x0 ./Application/User/Core/stm32h5xx_it.o
 .data          0x00000000        0x0 ./Application/User/Core/stm32h5xx_it.o
 .bss           0x00000000        0x0 ./Application/User/Core/stm32h5xx_it.o
 .text          0x00000000        0x0 ./Application/User/Core/syscalls.o
 .data          0x00000000        0x0 ./Application/User/Core/syscalls.o
 .bss           0x00000000        0x0 ./Application/User/Core/syscalls.o
 .text.initialise_monitor_handles
                0x00000000        0x4 ./Application/User/Core/syscalls.o
 .text._getpid  0x00000000        0x4 ./Application/User/Core/syscalls.o
 .text._kill    0x00000000       0x14 ./Application/User/Core/syscalls.o
 .text._exit    0x00000000        0xc ./Application/User/Core/syscalls.o
 .text._read    0x00000000       0x1c ./Application/User/Core/syscalls.o
 .text._write   0x00000000       0x1c ./Application/User/Core/syscalls.o
 .text._close   0x00000000        0x8 ./Application/User/Core/syscalls.o
 .text._fstat   0x00000000        0xc ./Application/User/Core/syscalls.o
 .text._isatty  0x00000000        0x4 ./Application/User/Core/syscalls.o
 .text._lseek   0x00000000        0x4 ./Application/User/Core/syscalls.o
 .text._open    0x00000000        0xc ./Application/User/Core/syscalls.o
 .text._wait    0x00000000       0x14 ./Application/User/Core/syscalls.o
 .text._unlink  0x00000000       0x14 ./Application/User/Core/syscalls.o
 .text._times   0x00000000        0x8 ./Application/User/Core/syscalls.o
 .text._stat    0x00000000        0xc ./Application/User/Core/syscalls.o
 .text._link    0x00000000       0x14 ./Application/User/Core/syscalls.o
 .text._fork    0x00000000       0x14 ./Application/User/Core/syscalls.o
 .text._execve  0x00000000       0x14 ./Application/User/Core/syscalls.o
 .data.environ  0x00000000        0x4 ./Application/User/Core/syscalls.o
 .bss.__env     0x00000000        0x4 ./Application/User/Core/syscalls.o
 .comment       0x00000000       0x44 ./Application/User/Core/syscalls.o
 .ARM.attributes
                0x00000000       0x36 ./Application/User/Core/syscalls.o
 .text          0x00000000        0x0 ./Application/User/Core/sysmem.o
 .data          0x00000000        0x0 ./Application/User/Core/sysmem.o
 .bss           0x00000000        0x0 ./Application/User/Core/sysmem.o
 .text._sbrk    0x00000000       0x48 ./Application/User/Core/sysmem.o
 .bss.__sbrk_heap_end
                0x00000000        0x4 ./Application/User/Core/sysmem.o
 .comment       0x00000000       0x44 ./Application/User/Core/sysmem.o
 .ARM.attributes
                0x00000000       0x36 ./Application/User/Core/sysmem.o
 .text          0x00000000       0x14 ./Application/User/Startup/startup_stm32h563zitx.o
 .data          0x00000000        0x0 ./Application/User/Startup/startup_stm32h563zitx.o
 .bss           0x00000000        0x0 ./Application/User/Startup/startup_stm32h563zitx.o
 .text          0x00000000        0x0 ./Drivers/CMSIS/system_stm32h5xx.o
 .data          0x00000000        0x0 ./Drivers/CMSIS/system_stm32h5xx.o
 .bss           0x00000000        0x0 ./Drivers/CMSIS/system_stm32h5xx.o
 .text.SystemCoreClockUpdate
                0x00000000      0x17c ./Drivers/CMSIS/system_stm32h5xx.o
 .rodata.APBPrescTable
                0x00000000        0x8 ./Drivers/CMSIS/system_stm32h5xx.o
 .text          0x00000000        0x0 ./Drivers/STM32H5xx_HAL_Driver/stm32h5xx_hal.o
 .data          0x00000000        0x0 ./Drivers/STM32H5xx_HAL_Driver/stm32h5xx_hal.o
 .bss           0x00000000        0x0 ./Drivers/STM32H5xx_HAL_Driver/stm32h5xx_hal.o
 .text.HAL_MspInit
                0x00000000        0x4 ./Drivers/STM32H5xx_HAL_Driver/stm32h5xx_hal.o
 .text.HAL_MspDeInit
                0x00000000        0x4 ./Drivers/STM32H5xx_HAL_Driver/stm32h5xx_hal.o
 .text.HAL_DeInit
                0x00000000       0x5c ./Drivers/STM32H5xx_HAL_Driver/stm32h5xx_hal.o
 .text.HAL_GetTickPrio
                0x00000000        0xc ./Drivers/STM32H5xx_HAL_Driver/stm32h5xx_hal.o
 .text.HAL_SetTickFreq
                0x00000000       0x28 ./Drivers/STM32H5xx_HAL_Driver/stm32h5xx_hal.o
 .text.HAL_GetTickFreq
                0x00000000        0xc ./Drivers/STM32H5xx_HAL_Driver/stm32h5xx_hal.o
 .text.HAL_SuspendTick
                0x00000000       0x10 ./Drivers/STM32H5xx_HAL_Driver/stm32h5xx_hal.o
 .text.HAL_ResumeTick
                0x00000000       0x10 ./Drivers/STM32H5xx_HAL_Driver/stm32h5xx_hal.o
 .text.HAL_GetHalVersion
                0x00000000        0x8 ./Drivers/STM32H5xx_HAL_Driver/stm32h5xx_hal.o
 .text.HAL_GetREVID
                0x00000000        0xc ./Drivers/STM32H5xx_HAL_Driver/stm32h5xx_hal.o
 .text.HAL_GetDEVID
                0x00000000       0x10 ./Drivers/STM32H5xx_HAL_Driver/stm32h5xx_hal.o
 .text.HAL_GetUIDw0
                0x00000000        0xc ./Drivers/STM32H5xx_HAL_Driver/stm32h5xx_hal.o
 .text.HAL_GetUIDw1
                0x00000000        0xc ./Drivers/STM32H5xx_HAL_Driver/stm32h5xx_hal.o
 .text.HAL_GetUIDw2
                0x00000000        0xc ./Drivers/STM32H5xx_HAL_Driver/stm32h5xx_hal.o
 .text.HAL_DBGMCU_EnableDBGStopMode
                0x00000000       0x10 ./Drivers/STM32H5xx_HAL_Driver/stm32h5xx_hal.o
 .text.HAL_DBGMCU_DisableDBGStopMode
                0x00000000       0x10 ./Drivers/STM32H5xx_HAL_Driver/stm32h5xx_hal.o
 .text.HAL_DBGMCU_EnableDBGStandbyMode
                0x00000000       0x10 ./Drivers/STM32H5xx_HAL_Driver/stm32h5xx_hal.o
 .text.HAL_DBGMCU_DisableDBGStandbyMode
                0x00000000       0x10 ./Drivers/STM32H5xx_HAL_Driver/stm32h5xx_hal.o
 .text.HAL_VREFBUF_VoltageScalingConfig
                0x00000000       0x14 ./Drivers/STM32H5xx_HAL_Driver/stm32h5xx_hal.o
 .text.HAL_VREFBUF_HighImpedanceConfig
                0x00000000       0x14 ./Drivers/STM32H5xx_HAL_Driver/stm32h5xx_hal.o
 .text.HAL_VREFBUF_TrimmingConfig
                0x00000000       0x14 ./Drivers/STM32H5xx_HAL_Driver/stm32h5xx_hal.o
 .text.HAL_EnableVREFBUF
                0x00000000       0x30 ./Drivers/STM32H5xx_HAL_Driver/stm32h5xx_hal.o
 .text.HAL_DisableVREFBUF
                0x00000000       0x10 ./Drivers/STM32H5xx_HAL_Driver/stm32h5xx_hal.o
 .text.HAL_SBS_ETHInterfaceSelect
                0x00000000       0x18 ./Drivers/STM32H5xx_HAL_Driver/stm32h5xx_hal.o
 .text.HAL_SBS_EnableVddIO1CompensationCell
                0x00000000       0x14 ./Drivers/STM32H5xx_HAL_Driver/stm32h5xx_hal.o
 .text.HAL_SBS_DisableVddIO1CompensationCell
                0x00000000       0x14 ./Drivers/STM32H5xx_HAL_Driver/stm32h5xx_hal.o
 .text.HAL_SBS_EnableVddIO2CompensationCell
                0x00000000       0x14 ./Drivers/STM32H5xx_HAL_Driver/stm32h5xx_hal.o
 .text.HAL_SBS_DisableVddIO2CompensationCell
                0x00000000       0x14 ./Drivers/STM32H5xx_HAL_Driver/stm32h5xx_hal.o
 .text.HAL_SBS_VDDCompensationCodeSelect
                0x00000000       0x18 ./Drivers/STM32H5xx_HAL_Driver/stm32h5xx_hal.o
 .text.HAL_SBS_VDDIOCompensationCodeSelect
                0x00000000       0x18 ./Drivers/STM32H5xx_HAL_Driver/stm32h5xx_hal.o
 .text.HAL_SBS_GetVddIO1CompensationCellReadyFlag
                0x00000000       0x10 ./Drivers/STM32H5xx_HAL_Driver/stm32h5xx_hal.o
 .text.HAL_SBS_GetVddIO2CompensationCellReadyFlag
                0x00000000       0x10 ./Drivers/STM32H5xx_HAL_Driver/stm32h5xx_hal.o
 .text.HAL_SBS_VDDCompensationCodeConfig
                0x00000000       0x1c ./Drivers/STM32H5xx_HAL_Driver/stm32h5xx_hal.o
 .text.HAL_SBS_VDDIOCompensationCodeConfig
                0x00000000       0x1c ./Drivers/STM32H5xx_HAL_Driver/stm32h5xx_hal.o
 .text.HAL_SBS_GetNMOSVddCompensationValue
                0x00000000       0x10 ./Drivers/STM32H5xx_HAL_Driver/stm32h5xx_hal.o
 .text.HAL_SBS_GetPMOSVddCompensationValue
                0x00000000       0x10 ./Drivers/STM32H5xx_HAL_Driver/stm32h5xx_hal.o
 .text.HAL_SBS_GetNMOSVddIO2CompensationValue
                0x00000000       0x10 ./Drivers/STM32H5xx_HAL_Driver/stm32h5xx_hal.o
 .text.HAL_SBS_GetPMOSVddIO2CompensationValue
                0x00000000       0x10 ./Drivers/STM32H5xx_HAL_Driver/stm32h5xx_hal.o
 .text.HAL_SBS_FLASH_DisableECCNMI
                0x00000000       0x14 ./Drivers/STM32H5xx_HAL_Driver/stm32h5xx_hal.o
 .text.HAL_SBS_FLASH_EnableECCNMI
                0x00000000       0x14 ./Drivers/STM32H5xx_HAL_Driver/stm32h5xx_hal.o
 .text.HAL_SBS_FLASH_ECCNMI_IsDisabled
                0x00000000       0x10 ./Drivers/STM32H5xx_HAL_Driver/stm32h5xx_hal.o
 .text.HAL_SBS_IncrementHDPLValue
                0x00000000       0x14 ./Drivers/STM32H5xx_HAL_Driver/stm32h5xx_hal.o
 .text.HAL_SBS_GetHDPLValue
                0x00000000        0xc ./Drivers/STM32H5xx_HAL_Driver/stm32h5xx_hal.o
 .text.HAL_SBS_EPOCHSelection
                0x00000000       0x18 ./Drivers/STM32H5xx_HAL_Driver/stm32h5xx_hal.o
 .text.HAL_SBS_GetEPOCHSelection
                0x00000000       0x10 ./Drivers/STM32H5xx_HAL_Driver/stm32h5xx_hal.o
 .text.HAL_SBS_SetOBKHDPL
                0x00000000       0x14 ./Drivers/STM32H5xx_HAL_Driver/stm32h5xx_hal.o
 .text.HAL_SBS_GetOBKHDPL
                0x00000000       0x10 ./Drivers/STM32H5xx_HAL_Driver/stm32h5xx_hal.o
 .text.HAL_SBS_OpenAccessPort
                0x00000000       0x14 ./Drivers/STM32H5xx_HAL_Driver/stm32h5xx_hal.o
 .text.HAL_SBS_OpenDebug
                0x00000000       0x14 ./Drivers/STM32H5xx_HAL_Driver/stm32h5xx_hal.o
 .text.HAL_SBS_ConfigDebugLevel
                0x00000000       0x20 ./Drivers/STM32H5xx_HAL_Driver/stm32h5xx_hal.o
 .text.HAL_SBS_GetDebugLevel
                0x00000000       0x10 ./Drivers/STM32H5xx_HAL_Driver/stm32h5xx_hal.o
 .text.HAL_SBS_LockDebugConfig
                0x00000000       0x14 ./Drivers/STM32H5xx_HAL_Driver/stm32h5xx_hal.o
 .text.HAL_SBS_ConfigDebugSecurity
                0x00000000       0x14 ./Drivers/STM32H5xx_HAL_Driver/stm32h5xx_hal.o
 .text.HAL_SBS_GetDebugSecurity
                0x00000000        0xc ./Drivers/STM32H5xx_HAL_Driver/stm32h5xx_hal.o
 .text.HAL_SBS_Lock
                0x00000000       0x10 ./Drivers/STM32H5xx_HAL_Driver/stm32h5xx_hal.o
 .text.HAL_SBS_GetLock
                0x00000000       0x18 ./Drivers/STM32H5xx_HAL_Driver/stm32h5xx_hal.o
 .text          0x00000000        0x0 ./Drivers/STM32H5xx_HAL_Driver/stm32h5xx_hal_cortex.o
 .data          0x00000000        0x0 ./Drivers/STM32H5xx_HAL_Driver/stm32h5xx_hal_cortex.o
 .bss           0x00000000        0x0 ./Drivers/STM32H5xx_HAL_Driver/stm32h5xx_hal_cortex.o
 .text.HAL_NVIC_EnableIRQ
                0x00000000       0x1c ./Drivers/STM32H5xx_HAL_Driver/stm32h5xx_hal_cortex.o
 .text.HAL_NVIC_DisableIRQ
                0x00000000       0x24 ./Drivers/STM32H5xx_HAL_Driver/stm32h5xx_hal_cortex.o
 .text.HAL_NVIC_SystemReset
                0x00000000       0x24 ./Drivers/STM32H5xx_HAL_Driver/stm32h5xx_hal_cortex.o
 .text.HAL_NVIC_GetPriorityGrouping
                0x00000000       0x10 ./Drivers/STM32H5xx_HAL_Driver/stm32h5xx_hal_cortex.o
 .text.HAL_NVIC_GetPriority
                0x00000000       0x68 ./Drivers/STM32H5xx_HAL_Driver/stm32h5xx_hal_cortex.o
 .text.HAL_NVIC_SetPendingIRQ
                0x00000000       0x1c ./Drivers/STM32H5xx_HAL_Driver/stm32h5xx_hal_cortex.o
 .text.HAL_NVIC_GetPendingIRQ
                0x00000000       0x24 ./Drivers/STM32H5xx_HAL_Driver/stm32h5xx_hal_cortex.o
 .text.HAL_NVIC_ClearPendingIRQ
                0x00000000       0x1c ./Drivers/STM32H5xx_HAL_Driver/stm32h5xx_hal_cortex.o
 .text.HAL_NVIC_GetActive
                0x00000000       0x24 ./Drivers/STM32H5xx_HAL_Driver/stm32h5xx_hal_cortex.o
 .text.HAL_SYSTICK_Callback
                0x00000000        0x4 ./Drivers/STM32H5xx_HAL_Driver/stm32h5xx_hal_cortex.o
 .text.HAL_SYSTICK_IRQHandler
                0x00000000        0x8 ./Drivers/STM32H5xx_HAL_Driver/stm32h5xx_hal_cortex.o
 .text.HAL_MPU_Enable
                0x00000000       0x24 ./Drivers/STM32H5xx_HAL_Driver/stm32h5xx_hal_cortex.o
 .text.HAL_MPU_Disable
                0x00000000       0x28 ./Drivers/STM32H5xx_HAL_Driver/stm32h5xx_hal_cortex.o
 .text.HAL_MPU_EnableRegion
                0x00000000       0x18 ./Drivers/STM32H5xx_HAL_Driver/stm32h5xx_hal_cortex.o
 .text.HAL_MPU_DisableRegion
                0x00000000       0x18 ./Drivers/STM32H5xx_HAL_Driver/stm32h5xx_hal_cortex.o
 .text.HAL_MPU_ConfigRegion
                0x00000000       0x54 ./Drivers/STM32H5xx_HAL_Driver/stm32h5xx_hal_cortex.o
 .text.HAL_MPU_ConfigMemoryAttributes
                0x00000000       0x38 ./Drivers/STM32H5xx_HAL_Driver/stm32h5xx_hal_cortex.o
 .text          0x00000000        0x0 ./Drivers/STM32H5xx_HAL_Driver/stm32h5xx_hal_dma.o
 .data          0x00000000        0x0 ./Drivers/STM32H5xx_HAL_Driver/stm32h5xx_hal_dma.o
 .bss           0x00000000        0x0 ./Drivers/STM32H5xx_HAL_Driver/stm32h5xx_hal_dma.o
 .text.HAL_DMA_Init
                0x00000000      0x2b4 ./Drivers/STM32H5xx_HAL_Driver/stm32h5xx_hal_dma.o
 .text.HAL_DMA_DeInit
                0x00000000       0xe8 ./Drivers/STM32H5xx_HAL_Driver/stm32h5xx_hal_dma.o
 .text.HAL_DMA_Start
                0x00000000       0x60 ./Drivers/STM32H5xx_HAL_Driver/stm32h5xx_hal_dma.o
 .text.HAL_DMA_Start_IT
                0x00000000       0x88 ./Drivers/STM32H5xx_HAL_Driver/stm32h5xx_hal_dma.o
 .text.HAL_DMA_Abort
                0x00000000       0x9c ./Drivers/STM32H5xx_HAL_Driver/stm32h5xx_hal_dma.o
 .text.HAL_DMA_Abort_IT
                0x00000000       0x2c ./Drivers/STM32H5xx_HAL_Driver/stm32h5xx_hal_dma.o
 .text.HAL_DMA_PollForTransfer
                0x00000000      0x134 ./Drivers/STM32H5xx_HAL_Driver/stm32h5xx_hal_dma.o
 .text.HAL_DMA_IRQHandler
                0x00000000      0x180 ./Drivers/STM32H5xx_HAL_Driver/stm32h5xx_hal_dma.o
 .text.HAL_DMA_RegisterCallback
                0x00000000       0x3c ./Drivers/STM32H5xx_HAL_Driver/stm32h5xx_hal_dma.o
 .text.HAL_DMA_UnRegisterCallback
                0x00000000       0x50 ./Drivers/STM32H5xx_HAL_Driver/stm32h5xx_hal_dma.o
 .text.HAL_DMA_GetState
                0x00000000        0x8 ./Drivers/STM32H5xx_HAL_Driver/stm32h5xx_hal_dma.o
 .text.HAL_DMA_GetError
                0x00000000        0x4 ./Drivers/STM32H5xx_HAL_Driver/stm32h5xx_hal_dma.o
 .text.HAL_DMA_ConfigChannelAttributes
                0x00000000       0x38 ./Drivers/STM32H5xx_HAL_Driver/stm32h5xx_hal_dma.o
 .text.HAL_DMA_GetConfigChannelAttributes
                0x00000000       0x70 ./Drivers/STM32H5xx_HAL_Driver/stm32h5xx_hal_dma.o
 .text.HAL_DMA_GetLockChannelAttributes
                0x00000000       0x30 ./Drivers/STM32H5xx_HAL_Driver/stm32h5xx_hal_dma.o
 .comment       0x00000000       0x44 ./Drivers/STM32H5xx_HAL_Driver/stm32h5xx_hal_dma.o
 .ARM.attributes
                0x00000000       0x36 ./Drivers/STM32H5xx_HAL_Driver/stm32h5xx_hal_dma.o
 .text          0x00000000        0x0 ./Drivers/STM32H5xx_HAL_Driver/stm32h5xx_hal_exti.o
 .data          0x00000000        0x0 ./Drivers/STM32H5xx_HAL_Driver/stm32h5xx_hal_exti.o
 .bss           0x00000000        0x0 ./Drivers/STM32H5xx_HAL_Driver/stm32h5xx_hal_exti.o
 .text.HAL_EXTI_SetConfigLine
                0x00000000       0xbc ./Drivers/STM32H5xx_HAL_Driver/stm32h5xx_hal_exti.o
 .text.HAL_EXTI_GetConfigLine
                0x00000000       0xac ./Drivers/STM32H5xx_HAL_Driver/stm32h5xx_hal_exti.o
 .text.HAL_EXTI_ClearConfigLine
                0x00000000       0x98 ./Drivers/STM32H5xx_HAL_Driver/stm32h5xx_hal_exti.o
 .text.HAL_EXTI_RegisterCallback
                0x00000000       0x20 ./Drivers/STM32H5xx_HAL_Driver/stm32h5xx_hal_exti.o
 .text.HAL_EXTI_GetHandle
                0x00000000       0x10 ./Drivers/STM32H5xx_HAL_Driver/stm32h5xx_hal_exti.o
 .text.HAL_EXTI_IRQHandler
                0x00000000       0x44 ./Drivers/STM32H5xx_HAL_Driver/stm32h5xx_hal_exti.o
 .text.HAL_EXTI_GetPending
                0x00000000       0x2c ./Drivers/STM32H5xx_HAL_Driver/stm32h5xx_hal_exti.o
 .text.HAL_EXTI_ClearPending
                0x00000000       0x28 ./Drivers/STM32H5xx_HAL_Driver/stm32h5xx_hal_exti.o
 .text.HAL_EXTI_GenerateSWI
                0x00000000       0x1c ./Drivers/STM32H5xx_HAL_Driver/stm32h5xx_hal_exti.o
 .text.HAL_EXTI_ConfigLineAttributes
                0x00000000       0x3c ./Drivers/STM32H5xx_HAL_Driver/stm32h5xx_hal_exti.o
 .text.HAL_EXTI_GetConfigLineAttributes
                0x00000000       0x38 ./Drivers/STM32H5xx_HAL_Driver/stm32h5xx_hal_exti.o
 .comment       0x00000000       0x44 ./Drivers/STM32H5xx_HAL_Driver/stm32h5xx_hal_exti.o
 .ARM.attributes
                0x00000000       0x36 ./Drivers/STM32H5xx_HAL_Driver/stm32h5xx_hal_exti.o
 .text          0x00000000        0x0 ./Drivers/STM32H5xx_HAL_Driver/stm32h5xx_hal_flash.o
 .data          0x00000000        0x0 ./Drivers/STM32H5xx_HAL_Driver/stm32h5xx_hal_flash.o
 .bss           0x00000000        0x0 ./Drivers/STM32H5xx_HAL_Driver/stm32h5xx_hal_flash.o
 .text.HAL_FLASH_Program
                0x00000000      0x178 ./Drivers/STM32H5xx_HAL_Driver/stm32h5xx_hal_flash.o
 .text.HAL_FLASH_Program_IT
                0x00000000      0x10c ./Drivers/STM32H5xx_HAL_Driver/stm32h5xx_hal_flash.o
 .text.HAL_FLASH_EndOfOperationCallback
                0x00000000        0x4 ./Drivers/STM32H5xx_HAL_Driver/stm32h5xx_hal_flash.o
 .text.HAL_FLASH_OperationErrorCallback
                0x00000000        0x4 ./Drivers/STM32H5xx_HAL_Driver/stm32h5xx_hal_flash.o
 .text.HAL_FLASH_IRQHandler
                0x00000000       0xc4 ./Drivers/STM32H5xx_HAL_Driver/stm32h5xx_hal_flash.o
 .text.HAL_FLASH_Unlock
                0x00000000       0x28 ./Drivers/STM32H5xx_HAL_Driver/stm32h5xx_hal_flash.o
 .text.HAL_FLASH_Lock
                0x00000000       0x18 ./Drivers/STM32H5xx_HAL_Driver/stm32h5xx_hal_flash.o
 .text.HAL_FLASH_OB_Unlock
                0x00000000       0x28 ./Drivers/STM32H5xx_HAL_Driver/stm32h5xx_hal_flash.o
 .text.HAL_FLASH_OB_Lock
                0x00000000       0x18 ./Drivers/STM32H5xx_HAL_Driver/stm32h5xx_hal_flash.o
 .text.HAL_FLASH_OB_Launch
                0x00000000       0x5c ./Drivers/STM32H5xx_HAL_Driver/stm32h5xx_hal_flash.o
 .text.HAL_FLASH_GetError
                0x00000000        0xc ./Drivers/STM32H5xx_HAL_Driver/stm32h5xx_hal_flash.o
 .text.FLASH_WaitForLastOperation
                0x00000000       0x64 ./Drivers/STM32H5xx_HAL_Driver/stm32h5xx_hal_flash.o
 .data.pFlash   0x00000000       0x1c ./Drivers/STM32H5xx_HAL_Driver/stm32h5xx_hal_flash.o
 .comment       0x00000000       0x44 ./Drivers/STM32H5xx_HAL_Driver/stm32h5xx_hal_flash.o
 .ARM.attributes
                0x00000000       0x36 ./Drivers/STM32H5xx_HAL_Driver/stm32h5xx_hal_flash.o
 .text          0x00000000        0x0 ./Drivers/STM32H5xx_HAL_Driver/stm32h5xx_hal_flash_ex.o
 .data          0x00000000        0x0 ./Drivers/STM32H5xx_HAL_Driver/stm32h5xx_hal_flash_ex.o
 .bss           0x00000000        0x0 ./Drivers/STM32H5xx_HAL_Driver/stm32h5xx_hal_flash_ex.o
 .text.HAL_FLASHEx_Erase
                0x00000000      0x158 ./Drivers/STM32H5xx_HAL_Driver/stm32h5xx_hal_flash_ex.o
 .text.HAL_FLASHEx_Erase_IT
                0x00000000       0xd0 ./Drivers/STM32H5xx_HAL_Driver/stm32h5xx_hal_flash_ex.o
 .text.HAL_FLASHEx_OBProgram
                0x00000000      0x43c ./Drivers/STM32H5xx_HAL_Driver/stm32h5xx_hal_flash_ex.o
 .text.HAL_FLASHEx_OBGetConfig
                0x00000000       0xc8 ./Drivers/STM32H5xx_HAL_Driver/stm32h5xx_hal_flash_ex.o
 .text.HAL_FLASHEx_OBK_Unlock
                0x00000000       0x28 ./Drivers/STM32H5xx_HAL_Driver/stm32h5xx_hal_flash_ex.o
 .text.HAL_FLASHEx_OBK_Lock
                0x00000000       0x18 ./Drivers/STM32H5xx_HAL_Driver/stm32h5xx_hal_flash_ex.o
 .text.HAL_FLASHEx_OBK_Swap
                0x00000000       0x38 ./Drivers/STM32H5xx_HAL_Driver/stm32h5xx_hal_flash_ex.o
 .text.HAL_FLASHEx_OBK_Swap_IT
                0x00000000       0x34 ./Drivers/STM32H5xx_HAL_Driver/stm32h5xx_hal_flash_ex.o
 .text.HAL_FLASHEx_GetOperation
                0x00000000       0x1c ./Drivers/STM32H5xx_HAL_Driver/stm32h5xx_hal_flash_ex.o
 .text.HAL_FLASHEx_ConfigBBAttributes
                0x00000000       0x64 ./Drivers/STM32H5xx_HAL_Driver/stm32h5xx_hal_flash_ex.o
 .text.HAL_FLASHEx_GetConfigBBAttributes
                0x00000000       0x28 ./Drivers/STM32H5xx_HAL_Driver/stm32h5xx_hal_flash_ex.o
 .text.HAL_FLASHEx_ConfigPrivMode
                0x00000000       0x14 ./Drivers/STM32H5xx_HAL_Driver/stm32h5xx_hal_flash_ex.o
 .text.HAL_FLASHEx_GetPrivMode
                0x00000000       0x10 ./Drivers/STM32H5xx_HAL_Driver/stm32h5xx_hal_flash_ex.o
 .text.HAL_FLASHEx_ConfigHDPExtension
                0x00000000       0x40 ./Drivers/STM32H5xx_HAL_Driver/stm32h5xx_hal_flash_ex.o
 .text.FLASH_Erase_Sector
                0x00000000       0x3c ./Drivers/STM32H5xx_HAL_Driver/stm32h5xx_hal_flash_ex.o
 .text.HAL_FLASHEx_EnableEccCorrectionInterrupt
                0x00000000       0x14 ./Drivers/STM32H5xx_HAL_Driver/stm32h5xx_hal_flash_ex.o
 .text.HAL_FLASHEx_DisableEccCorrectionInterrupt
                0x00000000       0x14 ./Drivers/STM32H5xx_HAL_Driver/stm32h5xx_hal_flash_ex.o
 .text.HAL_FLASHEx_GetEccInfo
                0x00000000      0x11c ./Drivers/STM32H5xx_HAL_Driver/stm32h5xx_hal_flash_ex.o
 .text.HAL_FLASHEx_EccCorrectionCallback
                0x00000000        0x4 ./Drivers/STM32H5xx_HAL_Driver/stm32h5xx_hal_flash_ex.o
 .text.HAL_FLASHEx_EccDetectionCallback
                0x00000000        0x4 ./Drivers/STM32H5xx_HAL_Driver/stm32h5xx_hal_flash_ex.o
 .text.HAL_FLASHEx_ECCD_IRQHandler
                0x00000000       0x24 ./Drivers/STM32H5xx_HAL_Driver/stm32h5xx_hal_flash_ex.o
 .comment       0x00000000       0x44 ./Drivers/STM32H5xx_HAL_Driver/stm32h5xx_hal_flash_ex.o
 .ARM.attributes
                0x00000000       0x36 ./Drivers/STM32H5xx_HAL_Driver/stm32h5xx_hal_flash_ex.o
 .text          0x00000000        0x0 ./Drivers/STM32H5xx_HAL_Driver/stm32h5xx_hal_gpio.o
 .data          0x00000000        0x0 ./Drivers/STM32H5xx_HAL_Driver/stm32h5xx_hal_gpio.o
 .bss           0x00000000        0x0 ./Drivers/STM32H5xx_HAL_Driver/stm32h5xx_hal_gpio.o
 .text.HAL_GPIO_Init
                0x00000000      0x188 ./Drivers/STM32H5xx_HAL_Driver/stm32h5xx_hal_gpio.o
 .text.HAL_GPIO_DeInit
                0x00000000       0xd8 ./Drivers/STM32H5xx_HAL_Driver/stm32h5xx_hal_gpio.o
 .text.HAL_GPIO_ReadPin
                0x00000000        0xc ./Drivers/STM32H5xx_HAL_Driver/stm32h5xx_hal_gpio.o
 .text.HAL_GPIO_WritePin
                0x00000000        0xc ./Drivers/STM32H5xx_HAL_Driver/stm32h5xx_hal_gpio.o
 .text.HAL_GPIO_WriteMultipleStatePin
                0x00000000        0x8 ./Drivers/STM32H5xx_HAL_Driver/stm32h5xx_hal_gpio.o
 .text.HAL_GPIO_TogglePin
                0x00000000       0x14 ./Drivers/STM32H5xx_HAL_Driver/stm32h5xx_hal_gpio.o
 .text.HAL_GPIO_LockPin
                0x00000000       0x2c ./Drivers/STM32H5xx_HAL_Driver/stm32h5xx_hal_gpio.o
 .text.HAL_GPIO_EnableHighSPeedLowVoltage
                0x00000000        0x8 ./Drivers/STM32H5xx_HAL_Driver/stm32h5xx_hal_gpio.o
 .text.HAL_GPIO_DisableHighSPeedLowVoltage
                0x00000000        0xc ./Drivers/STM32H5xx_HAL_Driver/stm32h5xx_hal_gpio.o
 .text.HAL_GPIO_EXTI_Rising_Callback
                0x00000000        0x4 ./Drivers/STM32H5xx_HAL_Driver/stm32h5xx_hal_gpio.o
 .text.HAL_GPIO_EXTI_Falling_Callback
                0x00000000        0x4 ./Drivers/STM32H5xx_HAL_Driver/stm32h5xx_hal_gpio.o
 .text.HAL_GPIO_EXTI_IRQHandler
                0x00000000       0x2c ./Drivers/STM32H5xx_HAL_Driver/stm32h5xx_hal_gpio.o
 .comment       0x00000000       0x44 ./Drivers/STM32H5xx_HAL_Driver/stm32h5xx_hal_gpio.o
 .ARM.attributes
                0x00000000       0x36 ./Drivers/STM32H5xx_HAL_Driver/stm32h5xx_hal_gpio.o
 .text          0x00000000        0x0 ./Drivers/STM32H5xx_HAL_Driver/stm32h5xx_hal_icache.o
 .data          0x00000000        0x0 ./Drivers/STM32H5xx_HAL_Driver/stm32h5xx_hal_icache.o
 .bss           0x00000000        0x0 ./Drivers/STM32H5xx_HAL_Driver/stm32h5xx_hal_icache.o
 .text.HAL_ICACHE_ConfigAssociativityMode
                0x00000000       0x28 ./Drivers/STM32H5xx_HAL_Driver/stm32h5xx_hal_icache.o
 .text.HAL_ICACHE_DeInit
                0x00000000       0x48 ./Drivers/STM32H5xx_HAL_Driver/stm32h5xx_hal_icache.o
 .text.HAL_ICACHE_Disable
                0x00000000       0x40 ./Drivers/STM32H5xx_HAL_Driver/stm32h5xx_hal_icache.o
 .text.HAL_ICACHE_IsEnabled
                0x00000000       0x10 ./Drivers/STM32H5xx_HAL_Driver/stm32h5xx_hal_icache.o
 .text.HAL_ICACHE_Invalidate
                0x00000000       0x58 ./Drivers/STM32H5xx_HAL_Driver/stm32h5xx_hal_icache.o
 .text.HAL_ICACHE_Invalidate_IT
                0x00000000       0x28 ./Drivers/STM32H5xx_HAL_Driver/stm32h5xx_hal_icache.o
 .text.HAL_ICACHE_WaitForInvalidateComplete
                0x00000000       0x48 ./Drivers/STM32H5xx_HAL_Driver/stm32h5xx_hal_icache.o
 .text.HAL_ICACHE_Monitor_Start
                0x00000000       0x14 ./Drivers/STM32H5xx_HAL_Driver/stm32h5xx_hal_icache.o
 .text.HAL_ICACHE_Monitor_Stop
                0x00000000       0x14 ./Drivers/STM32H5xx_HAL_Driver/stm32h5xx_hal_icache.o
 .text.HAL_ICACHE_Monitor_Reset
                0x00000000       0x1c ./Drivers/STM32H5xx_HAL_Driver/stm32h5xx_hal_icache.o
 .text.HAL_ICACHE_Monitor_GetHitValue
                0x00000000        0xc ./Drivers/STM32H5xx_HAL_Driver/stm32h5xx_hal_icache.o
 .text.HAL_ICACHE_Monitor_GetMissValue
                0x00000000        0xc ./Drivers/STM32H5xx_HAL_Driver/stm32h5xx_hal_icache.o
 .text.HAL_ICACHE_InvalidateCompleteCallback
                0x00000000        0x4 ./Drivers/STM32H5xx_HAL_Driver/stm32h5xx_hal_icache.o
 .text.HAL_ICACHE_ErrorCallback
                0x00000000        0x4 ./Drivers/STM32H5xx_HAL_Driver/stm32h5xx_hal_icache.o
 .text.HAL_ICACHE_IRQHandler
                0x00000000       0x40 ./Drivers/STM32H5xx_HAL_Driver/stm32h5xx_hal_icache.o
 .text.HAL_ICACHE_EnableRemapRegion
                0x00000000       0x60 ./Drivers/STM32H5xx_HAL_Driver/stm32h5xx_hal_icache.o
 .text.HAL_ICACHE_DisableRemapRegion
                0x00000000       0x2c ./Drivers/STM32H5xx_HAL_Driver/stm32h5xx_hal_icache.o
 .text          0x00000000        0x0 ./Drivers/STM32H5xx_HAL_Driver/stm32h5xx_hal_pwr.o
 .data          0x00000000        0x0 ./Drivers/STM32H5xx_HAL_Driver/stm32h5xx_hal_pwr.o
 .bss           0x00000000        0x0 ./Drivers/STM32H5xx_HAL_Driver/stm32h5xx_hal_pwr.o
 .text.HAL_PWR_DeInit
                0x00000000        0x4 ./Drivers/STM32H5xx_HAL_Driver/stm32h5xx_hal_pwr.o
 .text.HAL_PWR_EnableBkUpAccess
                0x00000000       0x10 ./Drivers/STM32H5xx_HAL_Driver/stm32h5xx_hal_pwr.o
 .text.HAL_PWR_DisableBkUpAccess
                0x00000000       0x10 ./Drivers/STM32H5xx_HAL_Driver/stm32h5xx_hal_pwr.o
 .text.HAL_PWR_ConfigPVD
                0x00000000       0x8c ./Drivers/STM32H5xx_HAL_Driver/stm32h5xx_hal_pwr.o
 .text.HAL_PWR_EnablePVD
                0x00000000       0x10 ./Drivers/STM32H5xx_HAL_Driver/stm32h5xx_hal_pwr.o
 .text.HAL_PWR_DisablePVD
                0x00000000       0x10 ./Drivers/STM32H5xx_HAL_Driver/stm32h5xx_hal_pwr.o
 .text.HAL_PWR_EnableWakeUpPin
                0x00000000       0x18 ./Drivers/STM32H5xx_HAL_Driver/stm32h5xx_hal_pwr.o
 .text.HAL_PWR_DisableWakeUpPin
                0x00000000       0x14 ./Drivers/STM32H5xx_HAL_Driver/stm32h5xx_hal_pwr.o
 .text.HAL_PWR_EnterSLEEPMode
                0x00000000       0x20 ./Drivers/STM32H5xx_HAL_Driver/stm32h5xx_hal_pwr.o
 .text.HAL_PWR_EnterSTOPMode
                0x00000000       0x38 ./Drivers/STM32H5xx_HAL_Driver/stm32h5xx_hal_pwr.o
 .text.HAL_PWR_EnterSTANDBYMode
                0x00000000       0x28 ./Drivers/STM32H5xx_HAL_Driver/stm32h5xx_hal_pwr.o
 .text.HAL_PWR_EnableSleepOnExit
                0x00000000       0x10 ./Drivers/STM32H5xx_HAL_Driver/stm32h5xx_hal_pwr.o
 .text.HAL_PWR_DisableSleepOnExit
                0x00000000       0x10 ./Drivers/STM32H5xx_HAL_Driver/stm32h5xx_hal_pwr.o
 .text.HAL_PWR_EnableSEVOnPend
                0x00000000       0x10 ./Drivers/STM32H5xx_HAL_Driver/stm32h5xx_hal_pwr.o
 .text.HAL_PWR_DisableSEVOnPend
                0x00000000       0x10 ./Drivers/STM32H5xx_HAL_Driver/stm32h5xx_hal_pwr.o
 .text.HAL_PWR_PVDCallback
                0x00000000        0x4 ./Drivers/STM32H5xx_HAL_Driver/stm32h5xx_hal_pwr.o
 .text.HAL_PWR_PVD_IRQHandler
                0x00000000       0x24 ./Drivers/STM32H5xx_HAL_Driver/stm32h5xx_hal_pwr.o
 .text.HAL_PWR_ConfigAttributes
                0x00000000       0x2c ./Drivers/STM32H5xx_HAL_Driver/stm32h5xx_hal_pwr.o
 .text.HAL_PWR_GetConfigAttributes
                0x00000000       0x20 ./Drivers/STM32H5xx_HAL_Driver/stm32h5xx_hal_pwr.o
 .comment       0x00000000       0x44 ./Drivers/STM32H5xx_HAL_Driver/stm32h5xx_hal_pwr.o
 .ARM.attributes
                0x00000000       0x36 ./Drivers/STM32H5xx_HAL_Driver/stm32h5xx_hal_pwr.o
 .text          0x00000000        0x0 ./Drivers/STM32H5xx_HAL_Driver/stm32h5xx_hal_pwr_ex.o
 .data          0x00000000        0x0 ./Drivers/STM32H5xx_HAL_Driver/stm32h5xx_hal_pwr_ex.o
 .bss           0x00000000        0x0 ./Drivers/STM32H5xx_HAL_Driver/stm32h5xx_hal_pwr_ex.o
 .text.HAL_PWREx_ConfigSupply
                0x00000000       0x3c ./Drivers/STM32H5xx_HAL_Driver/stm32h5xx_hal_pwr_ex.o
 .text.HAL_PWREx_GetSupplyConfig
                0x00000000       0x10 ./Drivers/STM32H5xx_HAL_Driver/stm32h5xx_hal_pwr_ex.o
 .text.HAL_PWREx_ControlVoltageScaling
                0x00000000       0x40 ./Drivers/STM32H5xx_HAL_Driver/stm32h5xx_hal_pwr_ex.o
 .text.HAL_PWREx_GetVoltageRange
                0x00000000       0x10 ./Drivers/STM32H5xx_HAL_Driver/stm32h5xx_hal_pwr_ex.o
 .text.HAL_PWREx_ControlStopModeVoltageScaling
                0x00000000       0x18 ./Drivers/STM32H5xx_HAL_Driver/stm32h5xx_hal_pwr_ex.o
 .text.HAL_PWREx_GetStopModeVoltageRange
                0x00000000       0x10 ./Drivers/STM32H5xx_HAL_Driver/stm32h5xx_hal_pwr_ex.o
 .text.HAL_PWREx_ConfigAVD
                0x00000000       0x88 ./Drivers/STM32H5xx_HAL_Driver/stm32h5xx_hal_pwr_ex.o
 .text.HAL_PWREx_EnableAVD
                0x00000000       0x10 ./Drivers/STM32H5xx_HAL_Driver/stm32h5xx_hal_pwr_ex.o
 .text.HAL_PWREx_DisableAVD
                0x00000000       0x10 ./Drivers/STM32H5xx_HAL_Driver/stm32h5xx_hal_pwr_ex.o
 .text.HAL_PWREx_EnableUSBVoltageDetector
                0x00000000       0x10 ./Drivers/STM32H5xx_HAL_Driver/stm32h5xx_hal_pwr_ex.o
 .text.HAL_PWREx_DisableUSBVoltageDetector
                0x00000000       0x10 ./Drivers/STM32H5xx_HAL_Driver/stm32h5xx_hal_pwr_ex.o
 .text.HAL_PWREx_EnableVddUSB
                0x00000000       0x10 ./Drivers/STM32H5xx_HAL_Driver/stm32h5xx_hal_pwr_ex.o
 .text.HAL_PWREx_DisableVddUSB
                0x00000000       0x10 ./Drivers/STM32H5xx_HAL_Driver/stm32h5xx_hal_pwr_ex.o
 .text.HAL_PWREx_EnableMonitoring
                0x00000000       0x10 ./Drivers/STM32H5xx_HAL_Driver/stm32h5xx_hal_pwr_ex.o
 .text.HAL_PWREx_DisableMonitoring
                0x00000000       0x10 ./Drivers/STM32H5xx_HAL_Driver/stm32h5xx_hal_pwr_ex.o
 .text.HAL_PWREx_EnableUCPDStandbyMode
                0x00000000       0x10 ./Drivers/STM32H5xx_HAL_Driver/stm32h5xx_hal_pwr_ex.o
 .text.HAL_PWREx_DisableUCPDStandbyMode
                0x00000000       0x10 ./Drivers/STM32H5xx_HAL_Driver/stm32h5xx_hal_pwr_ex.o
 .text.HAL_PWREx_EnableUCPDDeadBattery
                0x00000000       0x10 ./Drivers/STM32H5xx_HAL_Driver/stm32h5xx_hal_pwr_ex.o
 .text.HAL_PWREx_EnableBatteryCharging
                0x00000000       0x1c ./Drivers/STM32H5xx_HAL_Driver/stm32h5xx_hal_pwr_ex.o
 .text.HAL_PWREx_DisableBatteryCharging
                0x00000000       0x10 ./Drivers/STM32H5xx_HAL_Driver/stm32h5xx_hal_pwr_ex.o
 .text.HAL_PWREx_EnableAnalogBooster
                0x00000000       0x18 ./Drivers/STM32H5xx_HAL_Driver/stm32h5xx_hal_pwr_ex.o
 .text.HAL_PWREx_DisableAnalogBooster
                0x00000000       0x18 ./Drivers/STM32H5xx_HAL_Driver/stm32h5xx_hal_pwr_ex.o
 .text.HAL_PWREx_PVD_AVD_Rising_Callback
                0x00000000        0x4 ./Drivers/STM32H5xx_HAL_Driver/stm32h5xx_hal_pwr_ex.o
 .text.HAL_PWREx_PVD_AVD_Falling_Callback
                0x00000000        0x4 ./Drivers/STM32H5xx_HAL_Driver/stm32h5xx_hal_pwr_ex.o
 .text.HAL_PWREx_PVD_AVD_IRQHandler
                0x00000000       0x30 ./Drivers/STM32H5xx_HAL_Driver/stm32h5xx_hal_pwr_ex.o
 .text.HAL_PWREx_EnableWakeUpPin
                0x00000000       0x88 ./Drivers/STM32H5xx_HAL_Driver/stm32h5xx_hal_pwr_ex.o
 .text.HAL_PWREx_DisableWakeUpPin
                0x00000000       0x14 ./Drivers/STM32H5xx_HAL_Driver/stm32h5xx_hal_pwr_ex.o
 .text.HAL_PWREx_EnableFlashPowerDown
                0x00000000       0x10 ./Drivers/STM32H5xx_HAL_Driver/stm32h5xx_hal_pwr_ex.o
 .text.HAL_PWREx_DisableFlashPowerDown
                0x00000000       0x10 ./Drivers/STM32H5xx_HAL_Driver/stm32h5xx_hal_pwr_ex.o
 .text.HAL_PWREx_EnableMemoryShutOff
                0x00000000       0x10 ./Drivers/STM32H5xx_HAL_Driver/stm32h5xx_hal_pwr_ex.o
 .text.HAL_PWREx_DisableMemoryShutOff
                0x00000000       0x10 ./Drivers/STM32H5xx_HAL_Driver/stm32h5xx_hal_pwr_ex.o
 .text.HAL_PWREx_EnableBkupRAMRetention
                0x00000000       0x14 ./Drivers/STM32H5xx_HAL_Driver/stm32h5xx_hal_pwr_ex.o
 .text.HAL_PWREx_DisableBkupRAMRetention
                0x00000000       0x10 ./Drivers/STM32H5xx_HAL_Driver/stm32h5xx_hal_pwr_ex.o
 .text.HAL_PWREx_EnableStandbyIORetention
                0x00000000       0x10 ./Drivers/STM32H5xx_HAL_Driver/stm32h5xx_hal_pwr_ex.o
 .text.HAL_PWREx_DisableStandbyIORetention
                0x00000000       0x10 ./Drivers/STM32H5xx_HAL_Driver/stm32h5xx_hal_pwr_ex.o
 .text.HAL_PWREx_EnableStandbyJTAGIORetention
                0x00000000       0x10 ./Drivers/STM32H5xx_HAL_Driver/stm32h5xx_hal_pwr_ex.o
 .text.HAL_PWREx_DisableStandbyJTAGIORetention
                0x00000000       0x10 ./Drivers/STM32H5xx_HAL_Driver/stm32h5xx_hal_pwr_ex.o
 .text          0x00000000        0x0 ./Drivers/STM32H5xx_HAL_Driver/stm32h5xx_hal_rcc.o
 .data          0x00000000        0x0 ./Drivers/STM32H5xx_HAL_Driver/stm32h5xx_hal_rcc.o
 .bss           0x00000000        0x0 ./Drivers/STM32H5xx_HAL_Driver/stm32h5xx_hal_rcc.o
 .text.HAL_RCC_DeInit
                0x00000000      0x194 ./Drivers/STM32H5xx_HAL_Driver/stm32h5xx_hal_rcc.o
 .text.HAL_RCC_MCOConfig
                0x00000000       0xa4 ./Drivers/STM32H5xx_HAL_Driver/stm32h5xx_hal_rcc.o
 .text.HAL_RCC_GetHCLKFreq
                0x00000000       0x7c ./Drivers/STM32H5xx_HAL_Driver/stm32h5xx_hal_rcc.o
 .text.HAL_RCC_GetPCLK1Freq
                0x00000000       0x94 ./Drivers/STM32H5xx_HAL_Driver/stm32h5xx_hal_rcc.o
 .text.HAL_RCC_GetPCLK2Freq
                0x00000000       0x94 ./Drivers/STM32H5xx_HAL_Driver/stm32h5xx_hal_rcc.o
 .text.HAL_RCC_GetPCLK3Freq
                0x00000000       0x94 ./Drivers/STM32H5xx_HAL_Driver/stm32h5xx_hal_rcc.o
 .text.HAL_RCC_GetOscConfig
                0x00000000       0x9c ./Drivers/STM32H5xx_HAL_Driver/stm32h5xx_hal_rcc.o
 .text.HAL_RCC_GetClockConfig
                0x00000000       0x48 ./Drivers/STM32H5xx_HAL_Driver/stm32h5xx_hal_rcc.o
 .text.HAL_RCC_GetResetSource
                0x00000000       0x1c ./Drivers/STM32H5xx_HAL_Driver/stm32h5xx_hal_rcc.o
 .text.HAL_RCC_EnableCSS
                0x00000000       0x10 ./Drivers/STM32H5xx_HAL_Driver/stm32h5xx_hal_rcc.o
 .text.HAL_RCC_CSSCallback
                0x00000000        0x4 ./Drivers/STM32H5xx_HAL_Driver/stm32h5xx_hal_rcc.o
 .text.HAL_RCC_NMI_IRQHandler
                0x00000000       0x1c ./Drivers/STM32H5xx_HAL_Driver/stm32h5xx_hal_rcc.o
 .text.HAL_RCC_ConfigAttributes
                0x00000000       0x30 ./Drivers/STM32H5xx_HAL_Driver/stm32h5xx_hal_rcc.o
 .text.HAL_RCC_GetConfigAttributes
                0x00000000       0x20 ./Drivers/STM32H5xx_HAL_Driver/stm32h5xx_hal_rcc.o
 .text          0x00000000        0x0 ./Drivers/STM32H5xx_HAL_Driver/stm32h5xx_hal_rcc_ex.o
 .data          0x00000000        0x0 ./Drivers/STM32H5xx_HAL_Driver/stm32h5xx_hal_rcc_ex.o
 .bss           0x00000000        0x0 ./Drivers/STM32H5xx_HAL_Driver/stm32h5xx_hal_rcc_ex.o
 .text.RCCEx_PLL2_Config
                0x00000000       0xd4 ./Drivers/STM32H5xx_HAL_Driver/stm32h5xx_hal_rcc_ex.o
 .text.RCCEx_PLL3_Config
                0x00000000       0xd4 ./Drivers/STM32H5xx_HAL_Driver/stm32h5xx_hal_rcc_ex.o
 .text.RCCEx_PLLSource_Enable
                0x00000000       0x9c ./Drivers/STM32H5xx_HAL_Driver/stm32h5xx_hal_rcc_ex.o
 .text.HAL_RCCEx_PeriphCLKConfig
                0x00000000     0x1310 ./Drivers/STM32H5xx_HAL_Driver/stm32h5xx_hal_rcc_ex.o
 .text.HAL_RCCEx_GetPeriphCLKConfig
                0x00000000      0x2a4 ./Drivers/STM32H5xx_HAL_Driver/stm32h5xx_hal_rcc_ex.o
 .text.HAL_RCCEx_GetPLL1ClockFreq
                0x00000000      0x158 ./Drivers/STM32H5xx_HAL_Driver/stm32h5xx_hal_rcc_ex.o
 .text.HAL_RCCEx_GetPLL2ClockFreq
                0x00000000      0x158 ./Drivers/STM32H5xx_HAL_Driver/stm32h5xx_hal_rcc_ex.o
 .text.HAL_RCCEx_GetPLL3ClockFreq
                0x00000000      0x158 ./Drivers/STM32H5xx_HAL_Driver/stm32h5xx_hal_rcc_ex.o
 .text.HAL_RCCEx_GetPeriphCLKFreq
                0x00000000     0x1790 ./Drivers/STM32H5xx_HAL_Driver/stm32h5xx_hal_rcc_ex.o
 .text.HAL_RCCEx_EnablePLL2
                0x00000000       0xdc ./Drivers/STM32H5xx_HAL_Driver/stm32h5xx_hal_rcc_ex.o
 .text.HAL_RCCEx_DisablePLL2
                0x00000000       0x40 ./Drivers/STM32H5xx_HAL_Driver/stm32h5xx_hal_rcc_ex.o
 .text.HAL_RCCEx_EnablePLL3
                0x00000000       0xdc ./Drivers/STM32H5xx_HAL_Driver/stm32h5xx_hal_rcc_ex.o
 .text.HAL_RCCEx_DisablePLL3
                0x00000000       0x40 ./Drivers/STM32H5xx_HAL_Driver/stm32h5xx_hal_rcc_ex.o
 .text.HAL_RCCEx_WakeUpStopCLKConfig
                0x00000000       0x14 ./Drivers/STM32H5xx_HAL_Driver/stm32h5xx_hal_rcc_ex.o
 .text.HAL_RCCEx_KerWakeUpStopCLKConfig
                0x00000000       0x14 ./Drivers/STM32H5xx_HAL_Driver/stm32h5xx_hal_rcc_ex.o
 .text.HAL_RCCEx_EnableLSECSS
                0x00000000       0x14 ./Drivers/STM32H5xx_HAL_Driver/stm32h5xx_hal_rcc_ex.o
 .text.HAL_RCCEx_DisableLSECSS
                0x00000000       0x14 ./Drivers/STM32H5xx_HAL_Driver/stm32h5xx_hal_rcc_ex.o
 .text.HAL_RCCEx_LSECSS_Callback
                0x00000000        0x4 ./Drivers/STM32H5xx_HAL_Driver/stm32h5xx_hal_rcc_ex.o
 .text.HAL_RCCEx_LSECSS_IRQHandler
                0x00000000       0x18 ./Drivers/STM32H5xx_HAL_Driver/stm32h5xx_hal_rcc_ex.o
 .text.HAL_RCCEx_EnableLSCO
                0x00000000       0x4c ./Drivers/STM32H5xx_HAL_Driver/stm32h5xx_hal_rcc_ex.o
 .text.HAL_RCCEx_DisableLSCO
                0x00000000       0x3c ./Drivers/STM32H5xx_HAL_Driver/stm32h5xx_hal_rcc_ex.o
 .text.HAL_RCCEx_CRSConfig
                0x00000000       0x50 ./Drivers/STM32H5xx_HAL_Driver/stm32h5xx_hal_rcc_ex.o
 .text.HAL_RCCEx_CRSSoftwareSynchronizationGenerate
                0x00000000       0x10 ./Drivers/STM32H5xx_HAL_Driver/stm32h5xx_hal_rcc_ex.o
 .text.HAL_RCCEx_CRSGetSynchronizationInfo
                0x00000000       0x24 ./Drivers/STM32H5xx_HAL_Driver/stm32h5xx_hal_rcc_ex.o
 .text.HAL_RCCEx_CRSWaitSynchronization
                0x00000000       0xf0 ./Drivers/STM32H5xx_HAL_Driver/stm32h5xx_hal_rcc_ex.o
 .text.HAL_RCCEx_CRS_SyncOkCallback
                0x00000000        0x4 ./Drivers/STM32H5xx_HAL_Driver/stm32h5xx_hal_rcc_ex.o
 .text.HAL_RCCEx_CRS_SyncWarnCallback
                0x00000000        0x4 ./Drivers/STM32H5xx_HAL_Driver/stm32h5xx_hal_rcc_ex.o
 .text.HAL_RCCEx_CRS_ExpectedSyncCallback
                0x00000000        0x4 ./Drivers/STM32H5xx_HAL_Driver/stm32h5xx_hal_rcc_ex.o
 .text.HAL_RCCEx_CRS_ErrorCallback
                0x00000000        0x4 ./Drivers/STM32H5xx_HAL_Driver/stm32h5xx_hal_rcc_ex.o
 .text.HAL_RCCEx_CRS_IRQHandler
                0x00000000       0x74 ./Drivers/STM32H5xx_HAL_Driver/stm32h5xx_hal_rcc_ex.o
 .comment       0x00000000       0x44 ./Drivers/STM32H5xx_HAL_Driver/stm32h5xx_hal_rcc_ex.o
 .ARM.attributes
                0x00000000       0x36 ./Drivers/STM32H5xx_HAL_Driver/stm32h5xx_hal_rcc_ex.o
 .text          0x00000000        0x0 ./Drivers/STM32H5xx_HAL_Driver/stm32h5xx_ll_exti.o
 .data          0x00000000        0x0 ./Drivers/STM32H5xx_HAL_Driver/stm32h5xx_ll_exti.o
 .bss           0x00000000        0x0 ./Drivers/STM32H5xx_HAL_Driver/stm32h5xx_ll_exti.o
 .text.LL_EXTI_DeInit
                0x00000000       0x48 ./Drivers/STM32H5xx_HAL_Driver/stm32h5xx_ll_exti.o
 .text.LL_EXTI_StructInit
                0x00000000       0x10 ./Drivers/STM32H5xx_HAL_Driver/stm32h5xx_ll_exti.o
 .text          0x00000000        0x0 ./Drivers/STM32H5xx_HAL_Driver/stm32h5xx_ll_gpio.o
 .data          0x00000000        0x0 ./Drivers/STM32H5xx_HAL_Driver/stm32h5xx_ll_gpio.o
 .bss           0x00000000        0x0 ./Drivers/STM32H5xx_HAL_Driver/stm32h5xx_ll_gpio.o
 .text.LL_GPIO_DeInit
                0x00000000      0x11c ./Drivers/STM32H5xx_HAL_Driver/stm32h5xx_ll_gpio.o
 .text.LL_GPIO_StructInit
                0x00000000       0x18 ./Drivers/STM32H5xx_HAL_Driver/stm32h5xx_ll_gpio.o
 .text          0x00000000        0x0 ./Drivers/STM32H5xx_HAL_Driver/stm32h5xx_ll_rcc.o
 .data          0x00000000        0x0 ./Drivers/STM32H5xx_HAL_Driver/stm32h5xx_ll_rcc.o
 .bss           0x00000000        0x0 ./Drivers/STM32H5xx_HAL_Driver/stm32h5xx_ll_rcc.o
 .text.LL_RCC_GetPLL3ClockFreq.part.0.constprop.0
                0x00000000      0x17c ./Drivers/STM32H5xx_HAL_Driver/stm32h5xx_ll_rcc.o
 .text.LL_RCC_GetPLL2ClockFreq.part.0.constprop.0
                0x00000000      0x17c ./Drivers/STM32H5xx_HAL_Driver/stm32h5xx_ll_rcc.o
 .text.LL_RCC_GetPLL1ClockFreq.part.0.constprop.0
                0x00000000      0x17c ./Drivers/STM32H5xx_HAL_Driver/stm32h5xx_ll_rcc.o
 .text.LL_RCC_DeInit
                0x00000000       0xbc ./Drivers/STM32H5xx_HAL_Driver/stm32h5xx_ll_rcc.o
 .text.LL_RCC_GetSystemClocksFreq
                0x00000000       0xe8 ./Drivers/STM32H5xx_HAL_Driver/stm32h5xx_ll_rcc.o
 .text.LL_RCC_GetPLL1ClockFreq
                0x00000000      0x190 ./Drivers/STM32H5xx_HAL_Driver/stm32h5xx_ll_rcc.o
 .text.LL_RCC_GetPLL2ClockFreq
                0x00000000      0x190 ./Drivers/STM32H5xx_HAL_Driver/stm32h5xx_ll_rcc.o
 .text.LL_RCC_GetPLL3ClockFreq
                0x00000000      0x190 ./Drivers/STM32H5xx_HAL_Driver/stm32h5xx_ll_rcc.o
 .text.LL_RCC_CalcPLLClockFreq
                0x00000000       0x4c ./Drivers/STM32H5xx_HAL_Driver/stm32h5xx_ll_rcc.o
 .text.LL_RCC_GetSAIClockFreq
                0x00000000      0x1e0 ./Drivers/STM32H5xx_HAL_Driver/stm32h5xx_ll_rcc.o
 .text.LL_RCC_GetSDMMCClockFreq
                0x00000000       0x90 ./Drivers/STM32H5xx_HAL_Driver/stm32h5xx_ll_rcc.o
 .text.LL_RCC_GetRNGClockFreq
                0x00000000       0x80 ./Drivers/STM32H5xx_HAL_Driver/stm32h5xx_ll_rcc.o
 .text.LL_RCC_GetUSBClockFreq
                0x00000000       0x88 ./Drivers/STM32H5xx_HAL_Driver/stm32h5xx_ll_rcc.o
 .text.LL_RCC_GetDACLPClockFreq
                0x00000000       0x34 ./Drivers/STM32H5xx_HAL_Driver/stm32h5xx_ll_rcc.o
 .text.LL_RCC_GetFDCANClockFreq
                0x00000000       0x88 ./Drivers/STM32H5xx_HAL_Driver/stm32h5xx_ll_rcc.o
 .text.LL_RCC_GetCECClockFreq
                0x00000000       0x48 ./Drivers/STM32H5xx_HAL_Driver/stm32h5xx_ll_rcc.o
 .text.LL_RCC_GetCLKPClockFreq
                0x00000000       0x5c ./Drivers/STM32H5xx_HAL_Driver/stm32h5xx_ll_rcc.o
 .text.RCC_GetSystemClockFreq
                0x00000000       0xa0 ./Drivers/STM32H5xx_HAL_Driver/stm32h5xx_ll_rcc.o
 .text.LL_RCC_GetUSARTClockFreq
                0x00000000      0x314 ./Drivers/STM32H5xx_HAL_Driver/stm32h5xx_ll_rcc.o
 .text.LL_RCC_GetUARTClockFreq
                0x00000000      0x2fc ./Drivers/STM32H5xx_HAL_Driver/stm32h5xx_ll_rcc.o
 .text.LL_RCC_GetSPIClockFreq
                0x00000000      0x744 ./Drivers/STM32H5xx_HAL_Driver/stm32h5xx_ll_rcc.o
 .text.LL_RCC_GetI2CClockFreq
                0x00000000      0x160 ./Drivers/STM32H5xx_HAL_Driver/stm32h5xx_ll_rcc.o
 .text.LL_RCC_GetI3CClockFreq
                0x00000000       0xb4 ./Drivers/STM32H5xx_HAL_Driver/stm32h5xx_ll_rcc.o
 .text.LL_RCC_GetLPUARTClockFreq
                0x00000000       0xe8 ./Drivers/STM32H5xx_HAL_Driver/stm32h5xx_ll_rcc.o
 .text.LL_RCC_GetLPTIMClockFreq
                0x00000000      0x864 ./Drivers/STM32H5xx_HAL_Driver/stm32h5xx_ll_rcc.o
 .text.LL_RCC_GetADCDACClockFreq
                0x00000000       0xbc ./Drivers/STM32H5xx_HAL_Driver/stm32h5xx_ll_rcc.o
 .text.LL_RCC_GetOCTOSPIClockFreq
                0x00000000       0xe8 ./Drivers/STM32H5xx_HAL_Driver/stm32h5xx_ll_rcc.o
 .text.RCC_GetHCLKClockFreq
                0x00000000       0x18 ./Drivers/STM32H5xx_HAL_Driver/stm32h5xx_ll_rcc.o
 .text.RCC_GetPCLK1ClockFreq
                0x00000000       0x18 ./Drivers/STM32H5xx_HAL_Driver/stm32h5xx_ll_rcc.o
 .text.RCC_GetPCLK2ClockFreq
                0x00000000       0x18 ./Drivers/STM32H5xx_HAL_Driver/stm32h5xx_ll_rcc.o
 .text.RCC_GetPCLK3ClockFreq
                0x00000000       0x18 ./Drivers/STM32H5xx_HAL_Driver/stm32h5xx_ll_rcc.o
 .text.RCC_PLL1_GetFreqSystem
                0x00000000       0x60 ./Drivers/STM32H5xx_HAL_Driver/stm32h5xx_ll_rcc.o
 .comment       0x00000000       0x44 ./Drivers/STM32H5xx_HAL_Driver/stm32h5xx_ll_rcc.o
 .ARM.attributes
                0x00000000       0x36 ./Drivers/STM32H5xx_HAL_Driver/stm32h5xx_ll_rcc.o
 .text          0x00000000        0x0 ./Drivers/STM32H5xx_HAL_Driver/stm32h5xx_ll_utils.o
 .data          0x00000000        0x0 ./Drivers/STM32H5xx_HAL_Driver/stm32h5xx_ll_utils.o
 .bss           0x00000000        0x0 ./Drivers/STM32H5xx_HAL_Driver/stm32h5xx_ll_utils.o
 .text.LL_Init1msTick
                0x00000000       0x24 ./Drivers/STM32H5xx_HAL_Driver/stm32h5xx_ll_utils.o
 .text.LL_Init1msTick_HCLK_Div8
                0x00000000       0x24 ./Drivers/STM32H5xx_HAL_Driver/stm32h5xx_ll_utils.o
 .text.LL_Init1msTick_LSE
                0x00000000       0x14 ./Drivers/STM32H5xx_HAL_Driver/stm32h5xx_ll_utils.o
 .text.LL_Init1msTick_LSI
                0x00000000       0x14 ./Drivers/STM32H5xx_HAL_Driver/stm32h5xx_ll_utils.o
 .text.LL_mDelay
                0x00000000       0x24 ./Drivers/STM32H5xx_HAL_Driver/stm32h5xx_ll_utils.o
 .text.LL_SetSystemCoreClock
                0x00000000        0xc ./Drivers/STM32H5xx_HAL_Driver/stm32h5xx_ll_utils.o
 .text.LL_SetFlashLatency
                0x00000000      0x148 ./Drivers/STM32H5xx_HAL_Driver/stm32h5xx_ll_utils.o
 .text.UTILS_EnablePLLAndSwitchSystem
                0x00000000       0xcc ./Drivers/STM32H5xx_HAL_Driver/stm32h5xx_ll_utils.o
 .text.LL_PLL_ConfigSystemClock_CSI
                0x00000000       0xb4 ./Drivers/STM32H5xx_HAL_Driver/stm32h5xx_ll_utils.o
 .text.LL_PLL_ConfigSystemClock_HSI
                0x00000000       0xbc ./Drivers/STM32H5xx_HAL_Driver/stm32h5xx_ll_utils.o
 .text.LL_PLL_ConfigSystemClock_HSE
                0x00000000       0xe0 ./Drivers/STM32H5xx_HAL_Driver/stm32h5xx_ll_utils.o
 .comment       0x00000000       0x44 ./Drivers/STM32H5xx_HAL_Driver/stm32h5xx_ll_utils.o
 .ARM.attributes
                0x00000000       0x36 ./Drivers/STM32H5xx_HAL_Driver/stm32h5xx_ll_utils.o
 .text          0x00000000        0x0 /Applications/STM32CubeIDE.app/Contents/Eclipse/plugins/com.st.stm32cube.ide.mcu.externaltools.gnu-tools-for-stm32.13.3.rel1.macos64_1.0.0.202411102158/tools/bin/../lib/gcc/arm-none-eabi/13.3.1/../../../../arm-none-eabi/lib/thumb/v8-m.main+fp/hard/libc_nano.a(libc_a-exit.o)
 .data          0x00000000        0x0 /Applications/STM32CubeIDE.app/Contents/Eclipse/plugins/com.st.stm32cube.ide.mcu.externaltools.gnu-tools-for-stm32.13.3.rel1.macos64_1.0.0.202411102158/tools/bin/../lib/gcc/arm-none-eabi/13.3.1/../../../../arm-none-eabi/lib/thumb/v8-m.main+fp/hard/libc_nano.a(libc_a-exit.o)
 .bss           0x00000000        0x0 /Applications/STM32CubeIDE.app/Contents/Eclipse/plugins/com.st.stm32cube.ide.mcu.externaltools.gnu-tools-for-stm32.13.3.rel1.macos64_1.0.0.202411102158/tools/bin/../lib/gcc/arm-none-eabi/13.3.1/../../../../arm-none-eabi/lib/thumb/v8-m.main+fp/hard/libc_nano.a(libc_a-exit.o)
 .text.exit     0x00000000       0x24 /Applications/STM32CubeIDE.app/Contents/Eclipse/plugins/com.st.stm32cube.ide.mcu.externaltools.gnu-tools-for-stm32.13.3.rel1.macos64_1.0.0.202411102158/tools/bin/../lib/gcc/arm-none-eabi/13.3.1/../../../../arm-none-eabi/lib/thumb/v8-m.main+fp/hard/libc_nano.a(libc_a-exit.o)
 .debug_frame   0x00000000       0x28 /Applications/STM32CubeIDE.app/Contents/Eclipse/plugins/com.st.stm32cube.ide.mcu.externaltools.gnu-tools-for-stm32.13.3.rel1.macos64_1.0.0.202411102158/tools/bin/../lib/gcc/arm-none-eabi/13.3.1/../../../../arm-none-eabi/lib/thumb/v8-m.main+fp/hard/libc_nano.a(libc_a-exit.o)
 .ARM.attributes
                0x00000000       0x38 /Applications/STM32CubeIDE.app/Contents/Eclipse/plugins/com.st.stm32cube.ide.mcu.externaltools.gnu-tools-for-stm32.13.3.rel1.macos64_1.0.0.202411102158/tools/bin/../lib/gcc/arm-none-eabi/13.3.1/../../../../arm-none-eabi/lib/thumb/v8-m.main+fp/hard/libc_nano.a(libc_a-exit.o)
 .text          0x00000000        0x0 /Applications/STM32CubeIDE.app/Contents/Eclipse/plugins/com.st.stm32cube.ide.mcu.externaltools.gnu-tools-for-stm32.13.3.rel1.macos64_1.0.0.202411102158/tools/bin/../lib/gcc/arm-none-eabi/13.3.1/../../../../arm-none-eabi/lib/thumb/v8-m.main+fp/hard/libc_nano.a(libc_a-findfp.o)
 .data          0x00000000        0x0 /Applications/STM32CubeIDE.app/Contents/Eclipse/plugins/com.st.stm32cube.ide.mcu.externaltools.gnu-tools-for-stm32.13.3.rel1.macos64_1.0.0.202411102158/tools/bin/../lib/gcc/arm-none-eabi/13.3.1/../../../../arm-none-eabi/lib/thumb/v8-m.main+fp/hard/libc_nano.a(libc_a-findfp.o)
 .bss           0x00000000        0x0 /Applications/STM32CubeIDE.app/Contents/Eclipse/plugins/com.st.stm32cube.ide.mcu.externaltools.gnu-tools-for-stm32.13.3.rel1.macos64_1.0.0.202411102158/tools/bin/../lib/gcc/arm-none-eabi/13.3.1/../../../../arm-none-eabi/lib/thumb/v8-m.main+fp/hard/libc_nano.a(libc_a-findfp.o)
 .text.std      0x00000000       0x6c /Applications/STM32CubeIDE.app/Contents/Eclipse/plugins/com.st.stm32cube.ide.mcu.externaltools.gnu-tools-for-stm32.13.3.rel1.macos64_1.0.0.202411102158/tools/bin/../lib/gcc/arm-none-eabi/13.3.1/../../../../arm-none-eabi/lib/thumb/v8-m.main+fp/hard/libc_nano.a(libc_a-findfp.o)
 .text.stdio_exit_handler
                0x00000000       0x18 /Applications/STM32CubeIDE.app/Contents/Eclipse/plugins/com.st.stm32cube.ide.mcu.externaltools.gnu-tools-for-stm32.13.3.rel1.macos64_1.0.0.202411102158/tools/bin/../lib/gcc/arm-none-eabi/13.3.1/../../../../arm-none-eabi/lib/thumb/v8-m.main+fp/hard/libc_nano.a(libc_a-findfp.o)
 .text.cleanup_stdio
                0x00000000       0x40 /Applications/STM32CubeIDE.app/Contents/Eclipse/plugins/com.st.stm32cube.ide.mcu.externaltools.gnu-tools-for-stm32.13.3.rel1.macos64_1.0.0.202411102158/tools/bin/../lib/gcc/arm-none-eabi/13.3.1/../../../../arm-none-eabi/lib/thumb/v8-m.main+fp/hard/libc_nano.a(libc_a-findfp.o)
 .text.__fp_lock
                0x00000000       0x18 /Applications/STM32CubeIDE.app/Contents/Eclipse/plugins/com.st.stm32cube.ide.mcu.externaltools.gnu-tools-for-stm32.13.3.rel1.macos64_1.0.0.202411102158/tools/bin/../lib/gcc/arm-none-eabi/13.3.1/../../../../arm-none-eabi/lib/thumb/v8-m.main+fp/hard/libc_nano.a(libc_a-findfp.o)
 .text.__fp_unlock
                0x00000000       0x18 /Applications/STM32CubeIDE.app/Contents/Eclipse/plugins/com.st.stm32cube.ide.mcu.externaltools.gnu-tools-for-stm32.13.3.rel1.macos64_1.0.0.202411102158/tools/bin/../lib/gcc/arm-none-eabi/13.3.1/../../../../arm-none-eabi/lib/thumb/v8-m.main+fp/hard/libc_nano.a(libc_a-findfp.o)
 .text.global_stdio_init.part.0
                0x00000000       0x3c /Applications/STM32CubeIDE.app/Contents/Eclipse/plugins/com.st.stm32cube.ide.mcu.externaltools.gnu-tools-for-stm32.13.3.rel1.macos64_1.0.0.202411102158/tools/bin/../lib/gcc/arm-none-eabi/13.3.1/../../../../arm-none-eabi/lib/thumb/v8-m.main+fp/hard/libc_nano.a(libc_a-findfp.o)
 .text.__sfp_lock_acquire
                0x00000000        0xc /Applications/STM32CubeIDE.app/Contents/Eclipse/plugins/com.st.stm32cube.ide.mcu.externaltools.gnu-tools-for-stm32.13.3.rel1.macos64_1.0.0.202411102158/tools/bin/../lib/gcc/arm-none-eabi/13.3.1/../../../../arm-none-eabi/lib/thumb/v8-m.main+fp/hard/libc_nano.a(libc_a-findfp.o)
 .text.__sfp_lock_release
                0x00000000        0xc /Applications/STM32CubeIDE.app/Contents/Eclipse/plugins/com.st.stm32cube.ide.mcu.externaltools.gnu-tools-for-stm32.13.3.rel1.macos64_1.0.0.202411102158/tools/bin/../lib/gcc/arm-none-eabi/13.3.1/../../../../arm-none-eabi/lib/thumb/v8-m.main+fp/hard/libc_nano.a(libc_a-findfp.o)
 .text.__sfp    0x00000000       0xa4 /Applications/STM32CubeIDE.app/Contents/Eclipse/plugins/com.st.stm32cube.ide.mcu.externaltools.gnu-tools-for-stm32.13.3.rel1.macos64_1.0.0.202411102158/tools/bin/../lib/gcc/arm-none-eabi/13.3.1/../../../../arm-none-eabi/lib/thumb/v8-m.main+fp/hard/libc_nano.a(libc_a-findfp.o)
 .text.__sinit  0x00000000       0x30 /Applications/STM32CubeIDE.app/Contents/Eclipse/plugins/com.st.stm32cube.ide.mcu.externaltools.gnu-tools-for-stm32.13.3.rel1.macos64_1.0.0.202411102158/tools/bin/../lib/gcc/arm-none-eabi/13.3.1/../../../../arm-none-eabi/lib/thumb/v8-m.main+fp/hard/libc_nano.a(libc_a-findfp.o)
 .text.__fp_lock_all
                0x00000000       0x1c /Applications/STM32CubeIDE.app/Contents/Eclipse/plugins/com.st.stm32cube.ide.mcu.externaltools.gnu-tools-for-stm32.13.3.rel1.macos64_1.0.0.202411102158/tools/bin/../lib/gcc/arm-none-eabi/13.3.1/../../../../arm-none-eabi/lib/thumb/v8-m.main+fp/hard/libc_nano.a(libc_a-findfp.o)
 .text.__fp_unlock_all
                0x00000000       0x1c /Applications/STM32CubeIDE.app/Contents/Eclipse/plugins/com.st.stm32cube.ide.mcu.externaltools.gnu-tools-for-stm32.13.3.rel1.macos64_1.0.0.202411102158/tools/bin/../lib/gcc/arm-none-eabi/13.3.1/../../../../arm-none-eabi/lib/thumb/v8-m.main+fp/hard/libc_nano.a(libc_a-findfp.o)
 .data.__sglue  0x00000000        0xc /Applications/STM32CubeIDE.app/Contents/Eclipse/plugins/com.st.stm32cube.ide.mcu.externaltools.gnu-tools-for-stm32.13.3.rel1.macos64_1.0.0.202411102158/tools/bin/../lib/gcc/arm-none-eabi/13.3.1/../../../../arm-none-eabi/lib/thumb/v8-m.main+fp/hard/libc_nano.a(libc_a-findfp.o)
 .bss.__sf      0x00000000      0x138 /Applications/STM32CubeIDE.app/Contents/Eclipse/plugins/com.st.stm32cube.ide.mcu.externaltools.gnu-tools-for-stm32.13.3.rel1.macos64_1.0.0.202411102158/tools/bin/../lib/gcc/arm-none-eabi/13.3.1/../../../../arm-none-eabi/lib/thumb/v8-m.main+fp/hard/libc_nano.a(libc_a-findfp.o)
 .bss.__stdio_exit_handler
                0x00000000        0x4 /Applications/STM32CubeIDE.app/Contents/Eclipse/plugins/com.st.stm32cube.ide.mcu.externaltools.gnu-tools-for-stm32.13.3.rel1.macos64_1.0.0.202411102158/tools/bin/../lib/gcc/arm-none-eabi/13.3.1/../../../../arm-none-eabi/lib/thumb/v8-m.main+fp/hard/libc_nano.a(libc_a-findfp.o)
 .debug_frame   0x00000000      0x144 /Applications/STM32CubeIDE.app/Contents/Eclipse/plugins/com.st.stm32cube.ide.mcu.externaltools.gnu-tools-for-stm32.13.3.rel1.macos64_1.0.0.202411102158/tools/bin/../lib/gcc/arm-none-eabi/13.3.1/../../../../arm-none-eabi/lib/thumb/v8-m.main+fp/hard/libc_nano.a(libc_a-findfp.o)
 .ARM.attributes
                0x00000000       0x38 /Applications/STM32CubeIDE.app/Contents/Eclipse/plugins/com.st.stm32cube.ide.mcu.externaltools.gnu-tools-for-stm32.13.3.rel1.macos64_1.0.0.202411102158/tools/bin/../lib/gcc/arm-none-eabi/13.3.1/../../../../arm-none-eabi/lib/thumb/v8-m.main+fp/hard/libc_nano.a(libc_a-findfp.o)
 .text          0x00000000        0x0 /Applications/STM32CubeIDE.app/Contents/Eclipse/plugins/com.st.stm32cube.ide.mcu.externaltools.gnu-tools-for-stm32.13.3.rel1.macos64_1.0.0.202411102158/tools/bin/../lib/gcc/arm-none-eabi/13.3.1/../../../../arm-none-eabi/lib/thumb/v8-m.main+fp/hard/libc_nano.a(libc_a-fwalk.o)
 .data          0x00000000        0x0 /Applications/STM32CubeIDE.app/Contents/Eclipse/plugins/com.st.stm32cube.ide.mcu.externaltools.gnu-tools-for-stm32.13.3.rel1.macos64_1.0.0.202411102158/tools/bin/../lib/gcc/arm-none-eabi/13.3.1/../../../../arm-none-eabi/lib/thumb/v8-m.main+fp/hard/libc_nano.a(libc_a-fwalk.o)
 .bss           0x00000000        0x0 /Applications/STM32CubeIDE.app/Contents/Eclipse/plugins/com.st.stm32cube.ide.mcu.externaltools.gnu-tools-for-stm32.13.3.rel1.macos64_1.0.0.202411102158/tools/bin/../lib/gcc/arm-none-eabi/13.3.1/../../../../arm-none-eabi/lib/thumb/v8-m.main+fp/hard/libc_nano.a(libc_a-fwalk.o)
 .text._fwalk_sglue
                0x00000000       0x3c /Applications/STM32CubeIDE.app/Contents/Eclipse/plugins/com.st.stm32cube.ide.mcu.externaltools.gnu-tools-for-stm32.13.3.rel1.macos64_1.0.0.202411102158/tools/bin/../lib/gcc/arm-none-eabi/13.3.1/../../../../arm-none-eabi/lib/thumb/v8-m.main+fp/hard/libc_nano.a(libc_a-fwalk.o)
 .debug_frame   0x00000000       0x34 /Applications/STM32CubeIDE.app/Contents/Eclipse/plugins/com.st.stm32cube.ide.mcu.externaltools.gnu-tools-for-stm32.13.3.rel1.macos64_1.0.0.202411102158/tools/bin/../lib/gcc/arm-none-eabi/13.3.1/../../../../arm-none-eabi/lib/thumb/v8-m.main+fp/hard/libc_nano.a(libc_a-fwalk.o)
 .ARM.attributes
                0x00000000       0x38 /Applications/STM32CubeIDE.app/Contents/Eclipse/plugins/com.st.stm32cube.ide.mcu.externaltools.gnu-tools-for-stm32.13.3.rel1.macos64_1.0.0.202411102158/tools/bin/../lib/gcc/arm-none-eabi/13.3.1/../../../../arm-none-eabi/lib/thumb/v8-m.main+fp/hard/libc_nano.a(libc_a-fwalk.o)
 .text          0x00000000        0x0 /Applications/STM32CubeIDE.app/Contents/Eclipse/plugins/com.st.stm32cube.ide.mcu.externaltools.gnu-tools-for-stm32.13.3.rel1.macos64_1.0.0.202411102158/tools/bin/../lib/gcc/arm-none-eabi/13.3.1/../../../../arm-none-eabi/lib/thumb/v8-m.main+fp/hard/libc_nano.a(libc_a-memset.o)
 .data          0x00000000        0x0 /Applications/STM32CubeIDE.app/Contents/Eclipse/plugins/com.st.stm32cube.ide.mcu.externaltools.gnu-tools-for-stm32.13.3.rel1.macos64_1.0.0.202411102158/tools/bin/../lib/gcc/arm-none-eabi/13.3.1/../../../../arm-none-eabi/lib/thumb/v8-m.main+fp/hard/libc_nano.a(libc_a-memset.o)
 .bss           0x00000000        0x0 /Applications/STM32CubeIDE.app/Contents/Eclipse/plugins/com.st.stm32cube.ide.mcu.externaltools.gnu-tools-for-stm32.13.3.rel1.macos64_1.0.0.202411102158/tools/bin/../lib/gcc/arm-none-eabi/13.3.1/../../../../arm-none-eabi/lib/thumb/v8-m.main+fp/hard/libc_nano.a(libc_a-memset.o)
 .text          0x00000000        0x0 /Applications/STM32CubeIDE.app/Contents/Eclipse/plugins/com.st.stm32cube.ide.mcu.externaltools.gnu-tools-for-stm32.13.3.rel1.macos64_1.0.0.202411102158/tools/bin/../lib/gcc/arm-none-eabi/13.3.1/../../../../arm-none-eabi/lib/thumb/v8-m.main+fp/hard/libc_nano.a(libc_a-errno.o)
 .data          0x00000000        0x0 /Applications/STM32CubeIDE.app/Contents/Eclipse/plugins/com.st.stm32cube.ide.mcu.externaltools.gnu-tools-for-stm32.13.3.rel1.macos64_1.0.0.202411102158/tools/bin/../lib/gcc/arm-none-eabi/13.3.1/../../../../arm-none-eabi/lib/thumb/v8-m.main+fp/hard/libc_nano.a(libc_a-errno.o)
 .bss           0x00000000        0x0 /Applications/STM32CubeIDE.app/Contents/Eclipse/plugins/com.st.stm32cube.ide.mcu.externaltools.gnu-tools-for-stm32.13.3.rel1.macos64_1.0.0.202411102158/tools/bin/../lib/gcc/arm-none-eabi/13.3.1/../../../../arm-none-eabi/lib/thumb/v8-m.main+fp/hard/libc_nano.a(libc_a-errno.o)
 .text.__errno  0x00000000        0xc /Applications/STM32CubeIDE.app/Contents/Eclipse/plugins/com.st.stm32cube.ide.mcu.externaltools.gnu-tools-for-stm32.13.3.rel1.macos64_1.0.0.202411102158/tools/bin/../lib/gcc/arm-none-eabi/13.3.1/../../../../arm-none-eabi/lib/thumb/v8-m.main+fp/hard/libc_nano.a(libc_a-errno.o)
 .debug_frame   0x00000000       0x20 /Applications/STM32CubeIDE.app/Contents/Eclipse/plugins/com.st.stm32cube.ide.mcu.externaltools.gnu-tools-for-stm32.13.3.rel1.macos64_1.0.0.202411102158/tools/bin/../lib/gcc/arm-none-eabi/13.3.1/../../../../arm-none-eabi/lib/thumb/v8-m.main+fp/hard/libc_nano.a(libc_a-errno.o)
 .ARM.attributes
                0x00000000       0x38 /Applications/STM32CubeIDE.app/Contents/Eclipse/plugins/com.st.stm32cube.ide.mcu.externaltools.gnu-tools-for-stm32.13.3.rel1.macos64_1.0.0.202411102158/tools/bin/../lib/gcc/arm-none-eabi/13.3.1/../../../../arm-none-eabi/lib/thumb/v8-m.main+fp/hard/libc_nano.a(libc_a-errno.o)
 .text          0x00000000        0x0 /Applications/STM32CubeIDE.app/Contents/Eclipse/plugins/com.st.stm32cube.ide.mcu.externaltools.gnu-tools-for-stm32.13.3.rel1.macos64_1.0.0.202411102158/tools/bin/../lib/gcc/arm-none-eabi/13.3.1/../../../../arm-none-eabi/lib/thumb/v8-m.main+fp/hard/libc_nano.a(libc_a-init.o)
 .data          0x00000000        0x0 /Applications/STM32CubeIDE.app/Contents/Eclipse/plugins/com.st.stm32cube.ide.mcu.externaltools.gnu-tools-for-stm32.13.3.rel1.macos64_1.0.0.202411102158/tools/bin/../lib/gcc/arm-none-eabi/13.3.1/../../../../arm-none-eabi/lib/thumb/v8-m.main+fp/hard/libc_nano.a(libc_a-init.o)
 .bss           0x00000000        0x0 /Applications/STM32CubeIDE.app/Contents/Eclipse/plugins/com.st.stm32cube.ide.mcu.externaltools.gnu-tools-for-stm32.13.3.rel1.macos64_1.0.0.202411102158/tools/bin/../lib/gcc/arm-none-eabi/13.3.1/../../../../arm-none-eabi/lib/thumb/v8-m.main+fp/hard/libc_nano.a(libc_a-init.o)
 .text          0x00000000        0x0 /Applications/STM32CubeIDE.app/Contents/Eclipse/plugins/com.st.stm32cube.ide.mcu.externaltools.gnu-tools-for-stm32.13.3.rel1.macos64_1.0.0.202411102158/tools/bin/../lib/gcc/arm-none-eabi/13.3.1/../../../../arm-none-eabi/lib/thumb/v8-m.main+fp/hard/libc_nano.a(libc_a-lock.o)
 .data          0x00000000        0x0 /Applications/STM32CubeIDE.app/Contents/Eclipse/plugins/com.st.stm32cube.ide.mcu.externaltools.gnu-tools-for-stm32.13.3.rel1.macos64_1.0.0.202411102158/tools/bin/../lib/gcc/arm-none-eabi/13.3.1/../../../../arm-none-eabi/lib/thumb/v8-m.main+fp/hard/libc_nano.a(libc_a-lock.o)
 .bss           0x00000000        0x0 /Applications/STM32CubeIDE.app/Contents/Eclipse/plugins/com.st.stm32cube.ide.mcu.externaltools.gnu-tools-for-stm32.13.3.rel1.macos64_1.0.0.202411102158/tools/bin/../lib/gcc/arm-none-eabi/13.3.1/../../../../arm-none-eabi/lib/thumb/v8-m.main+fp/hard/libc_nano.a(libc_a-lock.o)
 .text.__retarget_lock_init
                0x00000000        0x2 /Applications/STM32CubeIDE.app/Contents/Eclipse/plugins/com.st.stm32cube.ide.mcu.externaltools.gnu-tools-for-stm32.13.3.rel1.macos64_1.0.0.202411102158/tools/bin/../lib/gcc/arm-none-eabi/13.3.1/../../../../arm-none-eabi/lib/thumb/v8-m.main+fp/hard/libc_nano.a(libc_a-lock.o)
 .text.__retarget_lock_init_recursive
                0x00000000        0x2 /Applications/STM32CubeIDE.app/Contents/Eclipse/plugins/com.st.stm32cube.ide.mcu.externaltools.gnu-tools-for-stm32.13.3.rel1.macos64_1.0.0.202411102158/tools/bin/../lib/gcc/arm-none-eabi/13.3.1/../../../../arm-none-eabi/lib/thumb/v8-m.main+fp/hard/libc_nano.a(libc_a-lock.o)
 .text.__retarget_lock_close
                0x00000000        0x2 /Applications/STM32CubeIDE.app/Contents/Eclipse/plugins/com.st.stm32cube.ide.mcu.externaltools.gnu-tools-for-stm32.13.3.rel1.macos64_1.0.0.202411102158/tools/bin/../lib/gcc/arm-none-eabi/13.3.1/../../../../arm-none-eabi/lib/thumb/v8-m.main+fp/hard/libc_nano.a(libc_a-lock.o)
 .text.__retarget_lock_close_recursive
                0x00000000        0x2 /Applications/STM32CubeIDE.app/Contents/Eclipse/plugins/com.st.stm32cube.ide.mcu.externaltools.gnu-tools-for-stm32.13.3.rel1.macos64_1.0.0.202411102158/tools/bin/../lib/gcc/arm-none-eabi/13.3.1/../../../../arm-none-eabi/lib/thumb/v8-m.main+fp/hard/libc_nano.a(libc_a-lock.o)
 .text.__retarget_lock_acquire
                0x00000000        0x2 /Applications/STM32CubeIDE.app/Contents/Eclipse/plugins/com.st.stm32cube.ide.mcu.externaltools.gnu-tools-for-stm32.13.3.rel1.macos64_1.0.0.202411102158/tools/bin/../lib/gcc/arm-none-eabi/13.3.1/../../../../arm-none-eabi/lib/thumb/v8-m.main+fp/hard/libc_nano.a(libc_a-lock.o)
 .text.__retarget_lock_acquire_recursive
                0x00000000        0x2 /Applications/STM32CubeIDE.app/Contents/Eclipse/plugins/com.st.stm32cube.ide.mcu.externaltools.gnu-tools-for-stm32.13.3.rel1.macos64_1.0.0.202411102158/tools/bin/../lib/gcc/arm-none-eabi/13.3.1/../../../../arm-none-eabi/lib/thumb/v8-m.main+fp/hard/libc_nano.a(libc_a-lock.o)
 .text.__retarget_lock_try_acquire
                0x00000000        0x4 /Applications/STM32CubeIDE.app/Contents/Eclipse/plugins/com.st.stm32cube.ide.mcu.externaltools.gnu-tools-for-stm32.13.3.rel1.macos64_1.0.0.202411102158/tools/bin/../lib/gcc/arm-none-eabi/13.3.1/../../../../arm-none-eabi/lib/thumb/v8-m.main+fp/hard/libc_nano.a(libc_a-lock.o)
 .text.__retarget_lock_try_acquire_recursive
                0x00000000        0x4 /Applications/STM32CubeIDE.app/Contents/Eclipse/plugins/com.st.stm32cube.ide.mcu.externaltools.gnu-tools-for-stm32.13.3.rel1.macos64_1.0.0.202411102158/tools/bin/../lib/gcc/arm-none-eabi/13.3.1/../../../../arm-none-eabi/lib/thumb/v8-m.main+fp/hard/libc_nano.a(libc_a-lock.o)
 .text.__retarget_lock_release
                0x00000000        0x2 /Applications/STM32CubeIDE.app/Contents/Eclipse/plugins/com.st.stm32cube.ide.mcu.externaltools.gnu-tools-for-stm32.13.3.rel1.macos64_1.0.0.202411102158/tools/bin/../lib/gcc/arm-none-eabi/13.3.1/../../../../arm-none-eabi/lib/thumb/v8-m.main+fp/hard/libc_nano.a(libc_a-lock.o)
 .text.__retarget_lock_release_recursive
                0x00000000        0x2 /Applications/STM32CubeIDE.app/Contents/Eclipse/plugins/com.st.stm32cube.ide.mcu.externaltools.gnu-tools-for-stm32.13.3.rel1.macos64_1.0.0.202411102158/tools/bin/../lib/gcc/arm-none-eabi/13.3.1/../../../../arm-none-eabi/lib/thumb/v8-m.main+fp/hard/libc_nano.a(libc_a-lock.o)
 .bss.__lock___arc4random_mutex
                0x00000000        0x1 /Applications/STM32CubeIDE.app/Contents/Eclipse/plugins/com.st.stm32cube.ide.mcu.externaltools.gnu-tools-for-stm32.13.3.rel1.macos64_1.0.0.202411102158/tools/bin/../lib/gcc/arm-none-eabi/13.3.1/../../../../arm-none-eabi/lib/thumb/v8-m.main+fp/hard/libc_nano.a(libc_a-lock.o)
 .bss.__lock___dd_hash_mutex
                0x00000000        0x1 /Applications/STM32CubeIDE.app/Contents/Eclipse/plugins/com.st.stm32cube.ide.mcu.externaltools.gnu-tools-for-stm32.13.3.rel1.macos64_1.0.0.202411102158/tools/bin/../lib/gcc/arm-none-eabi/13.3.1/../../../../arm-none-eabi/lib/thumb/v8-m.main+fp/hard/libc_nano.a(libc_a-lock.o)
 .bss.__lock___tz_mutex
                0x00000000        0x1 /Applications/STM32CubeIDE.app/Contents/Eclipse/plugins/com.st.stm32cube.ide.mcu.externaltools.gnu-tools-for-stm32.13.3.rel1.macos64_1.0.0.202411102158/tools/bin/../lib/gcc/arm-none-eabi/13.3.1/../../../../arm-none-eabi/lib/thumb/v8-m.main+fp/hard/libc_nano.a(libc_a-lock.o)
 .bss.__lock___env_recursive_mutex
                0x00000000        0x1 /Applications/STM32CubeIDE.app/Contents/Eclipse/plugins/com.st.stm32cube.ide.mcu.externaltools.gnu-tools-for-stm32.13.3.rel1.macos64_1.0.0.202411102158/tools/bin/../lib/gcc/arm-none-eabi/13.3.1/../../../../arm-none-eabi/lib/thumb/v8-m.main+fp/hard/libc_nano.a(libc_a-lock.o)
 .bss.__lock___malloc_recursive_mutex
                0x00000000        0x1 /Applications/STM32CubeIDE.app/Contents/Eclipse/plugins/com.st.stm32cube.ide.mcu.externaltools.gnu-tools-for-stm32.13.3.rel1.macos64_1.0.0.202411102158/tools/bin/../lib/gcc/arm-none-eabi/13.3.1/../../../../arm-none-eabi/lib/thumb/v8-m.main+fp/hard/libc_nano.a(libc_a-lock.o)
 .bss.__lock___at_quick_exit_mutex
                0x00000000        0x1 /Applications/STM32CubeIDE.app/Contents/Eclipse/plugins/com.st.stm32cube.ide.mcu.externaltools.gnu-tools-for-stm32.13.3.rel1.macos64_1.0.0.202411102158/tools/bin/../lib/gcc/arm-none-eabi/13.3.1/../../../../arm-none-eabi/lib/thumb/v8-m.main+fp/hard/libc_nano.a(libc_a-lock.o)
 .bss.__lock___atexit_recursive_mutex
                0x00000000        0x1 /Applications/STM32CubeIDE.app/Contents/Eclipse/plugins/com.st.stm32cube.ide.mcu.externaltools.gnu-tools-for-stm32.13.3.rel1.macos64_1.0.0.202411102158/tools/bin/../lib/gcc/arm-none-eabi/13.3.1/../../../../arm-none-eabi/lib/thumb/v8-m.main+fp/hard/libc_nano.a(libc_a-lock.o)
 .bss.__lock___sfp_recursive_mutex
                0x00000000        0x1 /Applications/STM32CubeIDE.app/Contents/Eclipse/plugins/com.st.stm32cube.ide.mcu.externaltools.gnu-tools-for-stm32.13.3.rel1.macos64_1.0.0.202411102158/tools/bin/../lib/gcc/arm-none-eabi/13.3.1/../../../../arm-none-eabi/lib/thumb/v8-m.main+fp/hard/libc_nano.a(libc_a-lock.o)
 .debug_frame   0x00000000       0xb0 /Applications/STM32CubeIDE.app/Contents/Eclipse/plugins/com.st.stm32cube.ide.mcu.externaltools.gnu-tools-for-stm32.13.3.rel1.macos64_1.0.0.202411102158/tools/bin/../lib/gcc/arm-none-eabi/13.3.1/../../../../arm-none-eabi/lib/thumb/v8-m.main+fp/hard/libc_nano.a(libc_a-lock.o)
 .ARM.attributes
                0x00000000       0x38 /Applications/STM32CubeIDE.app/Contents/Eclipse/plugins/com.st.stm32cube.ide.mcu.externaltools.gnu-tools-for-stm32.13.3.rel1.macos64_1.0.0.202411102158/tools/bin/../lib/gcc/arm-none-eabi/13.3.1/../../../../arm-none-eabi/lib/thumb/v8-m.main+fp/hard/libc_nano.a(libc_a-lock.o)
 .text          0x00000000        0x0 /Applications/STM32CubeIDE.app/Contents/Eclipse/plugins/com.st.stm32cube.ide.mcu.externaltools.gnu-tools-for-stm32.13.3.rel1.macos64_1.0.0.202411102158/tools/bin/../lib/gcc/arm-none-eabi/13.3.1/../../../../arm-none-eabi/lib/thumb/v8-m.main+fp/hard/libc_nano.a(libc_a-impure.o)
 .data          0x00000000        0x0 /Applications/STM32CubeIDE.app/Contents/Eclipse/plugins/com.st.stm32cube.ide.mcu.externaltools.gnu-tools-for-stm32.13.3.rel1.macos64_1.0.0.202411102158/tools/bin/../lib/gcc/arm-none-eabi/13.3.1/../../../../arm-none-eabi/lib/thumb/v8-m.main+fp/hard/libc_nano.a(libc_a-impure.o)
 .bss           0x00000000        0x0 /Applications/STM32CubeIDE.app/Contents/Eclipse/plugins/com.st.stm32cube.ide.mcu.externaltools.gnu-tools-for-stm32.13.3.rel1.macos64_1.0.0.202411102158/tools/bin/../lib/gcc/arm-none-eabi/13.3.1/../../../../arm-none-eabi/lib/thumb/v8-m.main+fp/hard/libc_nano.a(libc_a-impure.o)
 .data._impure_ptr
                0x00000000        0x4 /Applications/STM32CubeIDE.app/Contents/Eclipse/plugins/com.st.stm32cube.ide.mcu.externaltools.gnu-tools-for-stm32.13.3.rel1.macos64_1.0.0.202411102158/tools/bin/../lib/gcc/arm-none-eabi/13.3.1/../../../../arm-none-eabi/lib/thumb/v8-m.main+fp/hard/libc_nano.a(libc_a-impure.o)
 .data._impure_data
                0x00000000       0x4c /Applications/STM32CubeIDE.app/Contents/Eclipse/plugins/com.st.stm32cube.ide.mcu.externaltools.gnu-tools-for-stm32.13.3.rel1.macos64_1.0.0.202411102158/tools/bin/../lib/gcc/arm-none-eabi/13.3.1/../../../../arm-none-eabi/lib/thumb/v8-m.main+fp/hard/libc_nano.a(libc_a-impure.o)
 .ARM.attributes
                0x00000000       0x38 /Applications/STM32CubeIDE.app/Contents/Eclipse/plugins/com.st.stm32cube.ide.mcu.externaltools.gnu-tools-for-stm32.13.3.rel1.macos64_1.0.0.202411102158/tools/bin/../lib/gcc/arm-none-eabi/13.3.1/../../../../arm-none-eabi/lib/thumb/v8-m.main+fp/hard/libc_nano.a(libc_a-impure.o)
 .text          0x00000000        0x0 /Applications/STM32CubeIDE.app/Contents/Eclipse/plugins/com.st.stm32cube.ide.mcu.externaltools.gnu-tools-for-stm32.13.3.rel1.macos64_1.0.0.202411102158/tools/bin/../lib/gcc/arm-none-eabi/13.3.1/../../../../arm-none-eabi/lib/thumb/v8-m.main+fp/hard/libc_nano.a(libc_a-mallocr.o)
 .data          0x00000000        0x0 /Applications/STM32CubeIDE.app/Contents/Eclipse/plugins/com.st.stm32cube.ide.mcu.externaltools.gnu-tools-for-stm32.13.3.rel1.macos64_1.0.0.202411102158/tools/bin/../lib/gcc/arm-none-eabi/13.3.1/../../../../arm-none-eabi/lib/thumb/v8-m.main+fp/hard/libc_nano.a(libc_a-mallocr.o)
 .bss           0x00000000        0x0 /Applications/STM32CubeIDE.app/Contents/Eclipse/plugins/com.st.stm32cube.ide.mcu.externaltools.gnu-tools-for-stm32.13.3.rel1.macos64_1.0.0.202411102158/tools/bin/../lib/gcc/arm-none-eabi/13.3.1/../../../../arm-none-eabi/lib/thumb/v8-m.main+fp/hard/libc_nano.a(libc_a-mallocr.o)
 .text.sbrk_aligned
                0x00000000       0x44 /Applications/STM32CubeIDE.app/Contents/Eclipse/plugins/com.st.stm32cube.ide.mcu.externaltools.gnu-tools-for-stm32.13.3.rel1.macos64_1.0.0.202411102158/tools/bin/../lib/gcc/arm-none-eabi/13.3.1/../../../../arm-none-eabi/lib/thumb/v8-m.main+fp/hard/libc_nano.a(libc_a-mallocr.o)
 .text._malloc_r
                0x00000000      0x100 /Applications/STM32CubeIDE.app/Contents/Eclipse/plugins/com.st.stm32cube.ide.mcu.externaltools.gnu-tools-for-stm32.13.3.rel1.macos64_1.0.0.202411102158/tools/bin/../lib/gcc/arm-none-eabi/13.3.1/../../../../arm-none-eabi/lib/thumb/v8-m.main+fp/hard/libc_nano.a(libc_a-mallocr.o)
 .bss.__malloc_sbrk_start
                0x00000000        0x4 /Applications/STM32CubeIDE.app/Contents/Eclipse/plugins/com.st.stm32cube.ide.mcu.externaltools.gnu-tools-for-stm32.13.3.rel1.macos64_1.0.0.202411102158/tools/bin/../lib/gcc/arm-none-eabi/13.3.1/../../../../arm-none-eabi/lib/thumb/v8-m.main+fp/hard/libc_nano.a(libc_a-mallocr.o)
 .bss.__malloc_free_list
                0x00000000        0x4 /Applications/STM32CubeIDE.app/Contents/Eclipse/plugins/com.st.stm32cube.ide.mcu.externaltools.gnu-tools-for-stm32.13.3.rel1.macos64_1.0.0.202411102158/tools/bin/../lib/gcc/arm-none-eabi/13.3.1/../../../../arm-none-eabi/lib/thumb/v8-m.main+fp/hard/libc_nano.a(libc_a-mallocr.o)
 .debug_frame   0x00000000       0x50 /Applications/STM32CubeIDE.app/Contents/Eclipse/plugins/com.st.stm32cube.ide.mcu.externaltools.gnu-tools-for-stm32.13.3.rel1.macos64_1.0.0.202411102158/tools/bin/../lib/gcc/arm-none-eabi/13.3.1/../../../../arm-none-eabi/lib/thumb/v8-m.main+fp/hard/libc_nano.a(libc_a-mallocr.o)
 .ARM.attributes
                0x00000000       0x38 /Applications/STM32CubeIDE.app/Contents/Eclipse/plugins/com.st.stm32cube.ide.mcu.externaltools.gnu-tools-for-stm32.13.3.rel1.macos64_1.0.0.202411102158/tools/bin/../lib/gcc/arm-none-eabi/13.3.1/../../../../arm-none-eabi/lib/thumb/v8-m.main+fp/hard/libc_nano.a(libc_a-mallocr.o)
 .text          0x00000000        0x0 /Applications/STM32CubeIDE.app/Contents/Eclipse/plugins/com.st.stm32cube.ide.mcu.externaltools.gnu-tools-for-stm32.13.3.rel1.macos64_1.0.0.202411102158/tools/bin/../lib/gcc/arm-none-eabi/13.3.1/../../../../arm-none-eabi/lib/thumb/v8-m.main+fp/hard/libc_nano.a(libc_a-fflush.o)
 .data          0x00000000        0x0 /Applications/STM32CubeIDE.app/Contents/Eclipse/plugins/com.st.stm32cube.ide.mcu.externaltools.gnu-tools-for-stm32.13.3.rel1.macos64_1.0.0.202411102158/tools/bin/../lib/gcc/arm-none-eabi/13.3.1/../../../../arm-none-eabi/lib/thumb/v8-m.main+fp/hard/libc_nano.a(libc_a-fflush.o)
 .bss           0x00000000        0x0 /Applications/STM32CubeIDE.app/Contents/Eclipse/plugins/com.st.stm32cube.ide.mcu.externaltools.gnu-tools-for-stm32.13.3.rel1.macos64_1.0.0.202411102158/tools/bin/../lib/gcc/arm-none-eabi/13.3.1/../../../../arm-none-eabi/lib/thumb/v8-m.main+fp/hard/libc_nano.a(libc_a-fflush.o)
 .text.__sflush_r
                0x00000000      0x108 /Applications/STM32CubeIDE.app/Contents/Eclipse/plugins/com.st.stm32cube.ide.mcu.externaltools.gnu-tools-for-stm32.13.3.rel1.macos64_1.0.0.202411102158/tools/bin/../lib/gcc/arm-none-eabi/13.3.1/../../../../arm-none-eabi/lib/thumb/v8-m.main+fp/hard/libc_nano.a(libc_a-fflush.o)
 .text._fflush_r
                0x00000000       0x50 /Applications/STM32CubeIDE.app/Contents/Eclipse/plugins/com.st.stm32cube.ide.mcu.externaltools.gnu-tools-for-stm32.13.3.rel1.macos64_1.0.0.202411102158/tools/bin/../lib/gcc/arm-none-eabi/13.3.1/../../../../arm-none-eabi/lib/thumb/v8-m.main+fp/hard/libc_nano.a(libc_a-fflush.o)
 .text.fflush   0x00000000       0x28 /Applications/STM32CubeIDE.app/Contents/Eclipse/plugins/com.st.stm32cube.ide.mcu.externaltools.gnu-tools-for-stm32.13.3.rel1.macos64_1.0.0.202411102158/tools/bin/../lib/gcc/arm-none-eabi/13.3.1/../../../../arm-none-eabi/lib/thumb/v8-m.main+fp/hard/libc_nano.a(libc_a-fflush.o)
 .debug_frame   0x00000000       0x5c /Applications/STM32CubeIDE.app/Contents/Eclipse/plugins/com.st.stm32cube.ide.mcu.externaltools.gnu-tools-for-stm32.13.3.rel1.macos64_1.0.0.202411102158/tools/bin/../lib/gcc/arm-none-eabi/13.3.1/../../../../arm-none-eabi/lib/thumb/v8-m.main+fp/hard/libc_nano.a(libc_a-fflush.o)
 .ARM.attributes
                0x00000000       0x38 /Applications/STM32CubeIDE.app/Contents/Eclipse/plugins/com.st.stm32cube.ide.mcu.externaltools.gnu-tools-for-stm32.13.3.rel1.macos64_1.0.0.202411102158/tools/bin/../lib/gcc/arm-none-eabi/13.3.1/../../../../arm-none-eabi/lib/thumb/v8-m.main+fp/hard/libc_nano.a(libc_a-fflush.o)
 .text          0x00000000        0x0 /Applications/STM32CubeIDE.app/Contents/Eclipse/plugins/com.st.stm32cube.ide.mcu.externaltools.gnu-tools-for-stm32.13.3.rel1.macos64_1.0.0.202411102158/tools/bin/../lib/gcc/arm-none-eabi/13.3.1/../../../../arm-none-eabi/lib/thumb/v8-m.main+fp/hard/libc_nano.a(libc_a-mlock.o)
 .data          0x00000000        0x0 /Applications/STM32CubeIDE.app/Contents/Eclipse/plugins/com.st.stm32cube.ide.mcu.externaltools.gnu-tools-for-stm32.13.3.rel1.macos64_1.0.0.202411102158/tools/bin/../lib/gcc/arm-none-eabi/13.3.1/../../../../arm-none-eabi/lib/thumb/v8-m.main+fp/hard/libc_nano.a(libc_a-mlock.o)
 .bss           0x00000000        0x0 /Applications/STM32CubeIDE.app/Contents/Eclipse/plugins/com.st.stm32cube.ide.mcu.externaltools.gnu-tools-for-stm32.13.3.rel1.macos64_1.0.0.202411102158/tools/bin/../lib/gcc/arm-none-eabi/13.3.1/../../../../arm-none-eabi/lib/thumb/v8-m.main+fp/hard/libc_nano.a(libc_a-mlock.o)
 .text.__malloc_lock
                0x00000000        0xc /Applications/STM32CubeIDE.app/Contents/Eclipse/plugins/com.st.stm32cube.ide.mcu.externaltools.gnu-tools-for-stm32.13.3.rel1.macos64_1.0.0.202411102158/tools/bin/../lib/gcc/arm-none-eabi/13.3.1/../../../../arm-none-eabi/lib/thumb/v8-m.main+fp/hard/libc_nano.a(libc_a-mlock.o)
 .text.__malloc_unlock
                0x00000000        0xc /Applications/STM32CubeIDE.app/Contents/Eclipse/plugins/com.st.stm32cube.ide.mcu.externaltools.gnu-tools-for-stm32.13.3.rel1.macos64_1.0.0.202411102158/tools/bin/../lib/gcc/arm-none-eabi/13.3.1/../../../../arm-none-eabi/lib/thumb/v8-m.main+fp/hard/libc_nano.a(libc_a-mlock.o)
 .debug_frame   0x00000000       0x30 /Applications/STM32CubeIDE.app/Contents/Eclipse/plugins/com.st.stm32cube.ide.mcu.externaltools.gnu-tools-for-stm32.13.3.rel1.macos64_1.0.0.202411102158/tools/bin/../lib/gcc/arm-none-eabi/13.3.1/../../../../arm-none-eabi/lib/thumb/v8-m.main+fp/hard/libc_nano.a(libc_a-mlock.o)
 .ARM.attributes
                0x00000000       0x38 /Applications/STM32CubeIDE.app/Contents/Eclipse/plugins/com.st.stm32cube.ide.mcu.externaltools.gnu-tools-for-stm32.13.3.rel1.macos64_1.0.0.202411102158/tools/bin/../lib/gcc/arm-none-eabi/13.3.1/../../../../arm-none-eabi/lib/thumb/v8-m.main+fp/hard/libc_nano.a(libc_a-mlock.o)
 .text          0x00000000        0x0 /Applications/STM32CubeIDE.app/Contents/Eclipse/plugins/com.st.stm32cube.ide.mcu.externaltools.gnu-tools-for-stm32.13.3.rel1.macos64_1.0.0.202411102158/tools/bin/../lib/gcc/arm-none-eabi/13.3.1/../../../../arm-none-eabi/lib/thumb/v8-m.main+fp/hard/libc_nano.a(libc_a-stdio.o)
 .data          0x00000000        0x0 /Applications/STM32CubeIDE.app/Contents/Eclipse/plugins/com.st.stm32cube.ide.mcu.externaltools.gnu-tools-for-stm32.13.3.rel1.macos64_1.0.0.202411102158/tools/bin/../lib/gcc/arm-none-eabi/13.3.1/../../../../arm-none-eabi/lib/thumb/v8-m.main+fp/hard/libc_nano.a(libc_a-stdio.o)
 .bss           0x00000000        0x0 /Applications/STM32CubeIDE.app/Contents/Eclipse/plugins/com.st.stm32cube.ide.mcu.externaltools.gnu-tools-for-stm32.13.3.rel1.macos64_1.0.0.202411102158/tools/bin/../lib/gcc/arm-none-eabi/13.3.1/../../../../arm-none-eabi/lib/thumb/v8-m.main+fp/hard/libc_nano.a(libc_a-stdio.o)
 .text.__sread  0x00000000       0x22 /Applications/STM32CubeIDE.app/Contents/Eclipse/plugins/com.st.stm32cube.ide.mcu.externaltools.gnu-tools-for-stm32.13.3.rel1.macos64_1.0.0.202411102158/tools/bin/../lib/gcc/arm-none-eabi/13.3.1/../../../../arm-none-eabi/lib/thumb/v8-m.main+fp/hard/libc_nano.a(libc_a-stdio.o)
 .text.__seofread
                0x00000000        0x4 /Applications/STM32CubeIDE.app/Contents/Eclipse/plugins/com.st.stm32cube.ide.mcu.externaltools.gnu-tools-for-stm32.13.3.rel1.macos64_1.0.0.202411102158/tools/bin/../lib/gcc/arm-none-eabi/13.3.1/../../../../arm-none-eabi/lib/thumb/v8-m.main+fp/hard/libc_nano.a(libc_a-stdio.o)
 .text.__swrite
                0x00000000       0x38 /Applications/STM32CubeIDE.app/Contents/Eclipse/plugins/com.st.stm32cube.ide.mcu.externaltools.gnu-tools-for-stm32.13.3.rel1.macos64_1.0.0.202411102158/tools/bin/../lib/gcc/arm-none-eabi/13.3.1/../../../../arm-none-eabi/lib/thumb/v8-m.main+fp/hard/libc_nano.a(libc_a-stdio.o)
 .text.__sseek  0x00000000       0x24 /Applications/STM32CubeIDE.app/Contents/Eclipse/plugins/com.st.stm32cube.ide.mcu.externaltools.gnu-tools-for-stm32.13.3.rel1.macos64_1.0.0.202411102158/tools/bin/../lib/gcc/arm-none-eabi/13.3.1/../../../../arm-none-eabi/lib/thumb/v8-m.main+fp/hard/libc_nano.a(libc_a-stdio.o)
 .text.__sclose
                0x00000000        0x8 /Applications/STM32CubeIDE.app/Contents/Eclipse/plugins/com.st.stm32cube.ide.mcu.externaltools.gnu-tools-for-stm32.13.3.rel1.macos64_1.0.0.202411102158/tools/bin/../lib/gcc/arm-none-eabi/13.3.1/../../../../arm-none-eabi/lib/thumb/v8-m.main+fp/hard/libc_nano.a(libc_a-stdio.o)
 .debug_frame   0x00000000       0x88 /Applications/STM32CubeIDE.app/Contents/Eclipse/plugins/com.st.stm32cube.ide.mcu.externaltools.gnu-tools-for-stm32.13.3.rel1.macos64_1.0.0.202411102158/tools/bin/../lib/gcc/arm-none-eabi/13.3.1/../../../../arm-none-eabi/lib/thumb/v8-m.main+fp/hard/libc_nano.a(libc_a-stdio.o)
 .ARM.attributes
                0x00000000       0x38 /Applications/STM32CubeIDE.app/Contents/Eclipse/plugins/com.st.stm32cube.ide.mcu.externaltools.gnu-tools-for-stm32.13.3.rel1.macos64_1.0.0.202411102158/tools/bin/../lib/gcc/arm-none-eabi/13.3.1/../../../../arm-none-eabi/lib/thumb/v8-m.main+fp/hard/libc_nano.a(libc_a-stdio.o)
 .text          0x00000000        0x0 /Applications/STM32CubeIDE.app/Contents/Eclipse/plugins/com.st.stm32cube.ide.mcu.externaltools.gnu-tools-for-stm32.13.3.rel1.macos64_1.0.0.202411102158/tools/bin/../lib/gcc/arm-none-eabi/13.3.1/../../../../arm-none-eabi/lib/thumb/v8-m.main+fp/hard/libc_nano.a(libc_a-lseekr.o)
 .data          0x00000000        0x0 /Applications/STM32CubeIDE.app/Contents/Eclipse/plugins/com.st.stm32cube.ide.mcu.externaltools.gnu-tools-for-stm32.13.3.rel1.macos64_1.0.0.202411102158/tools/bin/../lib/gcc/arm-none-eabi/13.3.1/../../../../arm-none-eabi/lib/thumb/v8-m.main+fp/hard/libc_nano.a(libc_a-lseekr.o)
 .bss           0x00000000        0x0 /Applications/STM32CubeIDE.app/Contents/Eclipse/plugins/com.st.stm32cube.ide.mcu.externaltools.gnu-tools-for-stm32.13.3.rel1.macos64_1.0.0.202411102158/tools/bin/../lib/gcc/arm-none-eabi/13.3.1/../../../../arm-none-eabi/lib/thumb/v8-m.main+fp/hard/libc_nano.a(libc_a-lseekr.o)
 .text._lseek_r
                0x00000000       0x24 /Applications/STM32CubeIDE.app/Contents/Eclipse/plugins/com.st.stm32cube.ide.mcu.externaltools.gnu-tools-for-stm32.13.3.rel1.macos64_1.0.0.202411102158/tools/bin/../lib/gcc/arm-none-eabi/13.3.1/../../../../arm-none-eabi/lib/thumb/v8-m.main+fp/hard/libc_nano.a(libc_a-lseekr.o)
 .debug_frame   0x00000000       0x2c /Applications/STM32CubeIDE.app/Contents/Eclipse/plugins/com.st.stm32cube.ide.mcu.externaltools.gnu-tools-for-stm32.13.3.rel1.macos64_1.0.0.202411102158/tools/bin/../lib/gcc/arm-none-eabi/13.3.1/../../../../arm-none-eabi/lib/thumb/v8-m.main+fp/hard/libc_nano.a(libc_a-lseekr.o)
 .ARM.attributes
                0x00000000       0x38 /Applications/STM32CubeIDE.app/Contents/Eclipse/plugins/com.st.stm32cube.ide.mcu.externaltools.gnu-tools-for-stm32.13.3.rel1.macos64_1.0.0.202411102158/tools/bin/../lib/gcc/arm-none-eabi/13.3.1/../../../../arm-none-eabi/lib/thumb/v8-m.main+fp/hard/libc_nano.a(libc_a-lseekr.o)
 .text          0x00000000        0x0 /Applications/STM32CubeIDE.app/Contents/Eclipse/plugins/com.st.stm32cube.ide.mcu.externaltools.gnu-tools-for-stm32.13.3.rel1.macos64_1.0.0.202411102158/tools/bin/../lib/gcc/arm-none-eabi/13.3.1/../../../../arm-none-eabi/lib/thumb/v8-m.main+fp/hard/libc_nano.a(libc_a-readr.o)
 .data          0x00000000        0x0 /Applications/STM32CubeIDE.app/Contents/Eclipse/plugins/com.st.stm32cube.ide.mcu.externaltools.gnu-tools-for-stm32.13.3.rel1.macos64_1.0.0.202411102158/tools/bin/../lib/gcc/arm-none-eabi/13.3.1/../../../../arm-none-eabi/lib/thumb/v8-m.main+fp/hard/libc_nano.a(libc_a-readr.o)
 .bss           0x00000000        0x0 /Applications/STM32CubeIDE.app/Contents/Eclipse/plugins/com.st.stm32cube.ide.mcu.externaltools.gnu-tools-for-stm32.13.3.rel1.macos64_1.0.0.202411102158/tools/bin/../lib/gcc/arm-none-eabi/13.3.1/../../../../arm-none-eabi/lib/thumb/v8-m.main+fp/hard/libc_nano.a(libc_a-readr.o)
 .text._read_r  0x00000000       0x24 /Applications/STM32CubeIDE.app/Contents/Eclipse/plugins/com.st.stm32cube.ide.mcu.externaltools.gnu-tools-for-stm32.13.3.rel1.macos64_1.0.0.202411102158/tools/bin/../lib/gcc/arm-none-eabi/13.3.1/../../../../arm-none-eabi/lib/thumb/v8-m.main+fp/hard/libc_nano.a(libc_a-readr.o)
 .debug_frame   0x00000000       0x2c /Applications/STM32CubeIDE.app/Contents/Eclipse/plugins/com.st.stm32cube.ide.mcu.externaltools.gnu-tools-for-stm32.13.3.rel1.macos64_1.0.0.202411102158/tools/bin/../lib/gcc/arm-none-eabi/13.3.1/../../../../arm-none-eabi/lib/thumb/v8-m.main+fp/hard/libc_nano.a(libc_a-readr.o)
 .ARM.attributes
                0x00000000       0x38 /Applications/STM32CubeIDE.app/Contents/Eclipse/plugins/com.st.stm32cube.ide.mcu.externaltools.gnu-tools-for-stm32.13.3.rel1.macos64_1.0.0.202411102158/tools/bin/../lib/gcc/arm-none-eabi/13.3.1/../../../../arm-none-eabi/lib/thumb/v8-m.main+fp/hard/libc_nano.a(libc_a-readr.o)
 .text          0x00000000        0x0 /Applications/STM32CubeIDE.app/Contents/Eclipse/plugins/com.st.stm32cube.ide.mcu.externaltools.gnu-tools-for-stm32.13.3.rel1.macos64_1.0.0.202411102158/tools/bin/../lib/gcc/arm-none-eabi/13.3.1/../../../../arm-none-eabi/lib/thumb/v8-m.main+fp/hard/libc_nano.a(libc_a-sbrkr.o)
 .data          0x00000000        0x0 /Applications/STM32CubeIDE.app/Contents/Eclipse/plugins/com.st.stm32cube.ide.mcu.externaltools.gnu-tools-for-stm32.13.3.rel1.macos64_1.0.0.202411102158/tools/bin/../lib/gcc/arm-none-eabi/13.3.1/../../../../arm-none-eabi/lib/thumb/v8-m.main+fp/hard/libc_nano.a(libc_a-sbrkr.o)
 .bss           0x00000000        0x0 /Applications/STM32CubeIDE.app/Contents/Eclipse/plugins/com.st.stm32cube.ide.mcu.externaltools.gnu-tools-for-stm32.13.3.rel1.macos64_1.0.0.202411102158/tools/bin/../lib/gcc/arm-none-eabi/13.3.1/../../../../arm-none-eabi/lib/thumb/v8-m.main+fp/hard/libc_nano.a(libc_a-sbrkr.o)
 .text._sbrk_r  0x00000000       0x20 /Applications/STM32CubeIDE.app/Contents/Eclipse/plugins/com.st.stm32cube.ide.mcu.externaltools.gnu-tools-for-stm32.13.3.rel1.macos64_1.0.0.202411102158/tools/bin/../lib/gcc/arm-none-eabi/13.3.1/../../../../arm-none-eabi/lib/thumb/v8-m.main+fp/hard/libc_nano.a(libc_a-sbrkr.o)
 .debug_frame   0x00000000       0x2c /Applications/STM32CubeIDE.app/Contents/Eclipse/plugins/com.st.stm32cube.ide.mcu.externaltools.gnu-tools-for-stm32.13.3.rel1.macos64_1.0.0.202411102158/tools/bin/../lib/gcc/arm-none-eabi/13.3.1/../../../../arm-none-eabi/lib/thumb/v8-m.main+fp/hard/libc_nano.a(libc_a-sbrkr.o)
 .ARM.attributes
                0x00000000       0x38 /Applications/STM32CubeIDE.app/Contents/Eclipse/plugins/com.st.stm32cube.ide.mcu.externaltools.gnu-tools-for-stm32.13.3.rel1.macos64_1.0.0.202411102158/tools/bin/../lib/gcc/arm-none-eabi/13.3.1/../../../../arm-none-eabi/lib/thumb/v8-m.main+fp/hard/libc_nano.a(libc_a-sbrkr.o)
 .text          0x00000000        0x0 /Applications/STM32CubeIDE.app/Contents/Eclipse/plugins/com.st.stm32cube.ide.mcu.externaltools.gnu-tools-for-stm32.13.3.rel1.macos64_1.0.0.202411102158/tools/bin/../lib/gcc/arm-none-eabi/13.3.1/../../../../arm-none-eabi/lib/thumb/v8-m.main+fp/hard/libc_nano.a(libc_a-writer.o)
 .data          0x00000000        0x0 /Applications/STM32CubeIDE.app/Contents/Eclipse/plugins/com.st.stm32cube.ide.mcu.externaltools.gnu-tools-for-stm32.13.3.rel1.macos64_1.0.0.202411102158/tools/bin/../lib/gcc/arm-none-eabi/13.3.1/../../../../arm-none-eabi/lib/thumb/v8-m.main+fp/hard/libc_nano.a(libc_a-writer.o)
 .bss           0x00000000        0x0 /Applications/STM32CubeIDE.app/Contents/Eclipse/plugins/com.st.stm32cube.ide.mcu.externaltools.gnu-tools-for-stm32.13.3.rel1.macos64_1.0.0.202411102158/tools/bin/../lib/gcc/arm-none-eabi/13.3.1/../../../../arm-none-eabi/lib/thumb/v8-m.main+fp/hard/libc_nano.a(libc_a-writer.o)
 .text._write_r
                0x00000000       0x24 /Applications/STM32CubeIDE.app/Contents/Eclipse/plugins/com.st.stm32cube.ide.mcu.externaltools.gnu-tools-for-stm32.13.3.rel1.macos64_1.0.0.202411102158/tools/bin/../lib/gcc/arm-none-eabi/13.3.1/../../../../arm-none-eabi/lib/thumb/v8-m.main+fp/hard/libc_nano.a(libc_a-writer.o)
 .debug_frame   0x00000000       0x2c /Applications/STM32CubeIDE.app/Contents/Eclipse/plugins/com.st.stm32cube.ide.mcu.externaltools.gnu-tools-for-stm32.13.3.rel1.macos64_1.0.0.202411102158/tools/bin/../lib/gcc/arm-none-eabi/13.3.1/../../../../arm-none-eabi/lib/thumb/v8-m.main+fp/hard/libc_nano.a(libc_a-writer.o)
 .ARM.attributes
                0x00000000       0x38 /Applications/STM32CubeIDE.app/Contents/Eclipse/plugins/com.st.stm32cube.ide.mcu.externaltools.gnu-tools-for-stm32.13.3.rel1.macos64_1.0.0.202411102158/tools/bin/../lib/gcc/arm-none-eabi/13.3.1/../../../../arm-none-eabi/lib/thumb/v8-m.main+fp/hard/libc_nano.a(libc_a-writer.o)
 .text          0x00000000        0x0 /Applications/STM32CubeIDE.app/Contents/Eclipse/plugins/com.st.stm32cube.ide.mcu.externaltools.gnu-tools-for-stm32.13.3.rel1.macos64_1.0.0.202411102158/tools/bin/../lib/gcc/arm-none-eabi/13.3.1/../../../../arm-none-eabi/lib/thumb/v8-m.main+fp/hard/libc_nano.a(libc_a-closer.o)
 .data          0x00000000        0x0 /Applications/STM32CubeIDE.app/Contents/Eclipse/plugins/com.st.stm32cube.ide.mcu.externaltools.gnu-tools-for-stm32.13.3.rel1.macos64_1.0.0.202411102158/tools/bin/../lib/gcc/arm-none-eabi/13.3.1/../../../../arm-none-eabi/lib/thumb/v8-m.main+fp/hard/libc_nano.a(libc_a-closer.o)
 .bss           0x00000000        0x0 /Applications/STM32CubeIDE.app/Contents/Eclipse/plugins/com.st.stm32cube.ide.mcu.externaltools.gnu-tools-for-stm32.13.3.rel1.macos64_1.0.0.202411102158/tools/bin/../lib/gcc/arm-none-eabi/13.3.1/../../../../arm-none-eabi/lib/thumb/v8-m.main+fp/hard/libc_nano.a(libc_a-closer.o)
 .text._close_r
                0x00000000       0x20 /Applications/STM32CubeIDE.app/Contents/Eclipse/plugins/com.st.stm32cube.ide.mcu.externaltools.gnu-tools-for-stm32.13.3.rel1.macos64_1.0.0.202411102158/tools/bin/../lib/gcc/arm-none-eabi/13.3.1/../../../../arm-none-eabi/lib/thumb/v8-m.main+fp/hard/libc_nano.a(libc_a-closer.o)
 .debug_frame   0x00000000       0x2c /Applications/STM32CubeIDE.app/Contents/Eclipse/plugins/com.st.stm32cube.ide.mcu.externaltools.gnu-tools-for-stm32.13.3.rel1.macos64_1.0.0.202411102158/tools/bin/../lib/gcc/arm-none-eabi/13.3.1/../../../../arm-none-eabi/lib/thumb/v8-m.main+fp/hard/libc_nano.a(libc_a-closer.o)
 .ARM.attributes
                0x00000000       0x38 /Applications/STM32CubeIDE.app/Contents/Eclipse/plugins/com.st.stm32cube.ide.mcu.externaltools.gnu-tools-for-stm32.13.3.rel1.macos64_1.0.0.202411102158/tools/bin/../lib/gcc/arm-none-eabi/13.3.1/../../../../arm-none-eabi/lib/thumb/v8-m.main+fp/hard/libc_nano.a(libc_a-closer.o)
 .text          0x00000000        0x0 /Applications/STM32CubeIDE.app/Contents/Eclipse/plugins/com.st.stm32cube.ide.mcu.externaltools.gnu-tools-for-stm32.13.3.rel1.macos64_1.0.0.202411102158/tools/bin/../lib/gcc/arm-none-eabi/13.3.1/../../../../arm-none-eabi/lib/thumb/v8-m.main+fp/hard/libc_nano.a(libc_a-reent.o)
 .data          0x00000000        0x0 /Applications/STM32CubeIDE.app/Contents/Eclipse/plugins/com.st.stm32cube.ide.mcu.externaltools.gnu-tools-for-stm32.13.3.rel1.macos64_1.0.0.202411102158/tools/bin/../lib/gcc/arm-none-eabi/13.3.1/../../../../arm-none-eabi/lib/thumb/v8-m.main+fp/hard/libc_nano.a(libc_a-reent.o)
 .bss           0x00000000        0x0 /Applications/STM32CubeIDE.app/Contents/Eclipse/plugins/com.st.stm32cube.ide.mcu.externaltools.gnu-tools-for-stm32.13.3.rel1.macos64_1.0.0.202411102158/tools/bin/../lib/gcc/arm-none-eabi/13.3.1/../../../../arm-none-eabi/lib/thumb/v8-m.main+fp/hard/libc_nano.a(libc_a-reent.o)
 .text._reclaim_reent
                0x00000000       0xbc /Applications/STM32CubeIDE.app/Contents/Eclipse/plugins/com.st.stm32cube.ide.mcu.externaltools.gnu-tools-for-stm32.13.3.rel1.macos64_1.0.0.202411102158/tools/bin/../lib/gcc/arm-none-eabi/13.3.1/../../../../arm-none-eabi/lib/thumb/v8-m.main+fp/hard/libc_nano.a(libc_a-reent.o)
 .bss.errno     0x00000000        0x4 /Applications/STM32CubeIDE.app/Contents/Eclipse/plugins/com.st.stm32cube.ide.mcu.externaltools.gnu-tools-for-stm32.13.3.rel1.macos64_1.0.0.202411102158/tools/bin/../lib/gcc/arm-none-eabi/13.3.1/../../../../arm-none-eabi/lib/thumb/v8-m.main+fp/hard/libc_nano.a(libc_a-reent.o)
 .debug_frame   0x00000000       0x38 /Applications/STM32CubeIDE.app/Contents/Eclipse/plugins/com.st.stm32cube.ide.mcu.externaltools.gnu-tools-for-stm32.13.3.rel1.macos64_1.0.0.202411102158/tools/bin/../lib/gcc/arm-none-eabi/13.3.1/../../../../arm-none-eabi/lib/thumb/v8-m.main+fp/hard/libc_nano.a(libc_a-reent.o)
 .ARM.attributes
                0x00000000       0x38 /Applications/STM32CubeIDE.app/Contents/Eclipse/plugins/com.st.stm32cube.ide.mcu.externaltools.gnu-tools-for-stm32.13.3.rel1.macos64_1.0.0.202411102158/tools/bin/../lib/gcc/arm-none-eabi/13.3.1/../../../../arm-none-eabi/lib/thumb/v8-m.main+fp/hard/libc_nano.a(libc_a-reent.o)
 .text          0x00000000        0x0 /Applications/STM32CubeIDE.app/Contents/Eclipse/plugins/com.st.stm32cube.ide.mcu.externaltools.gnu-tools-for-stm32.13.3.rel1.macos64_1.0.0.202411102158/tools/bin/../lib/gcc/arm-none-eabi/13.3.1/../../../../arm-none-eabi/lib/thumb/v8-m.main+fp/hard/libc_nano.a(libc_a-freer.o)
 .data          0x00000000        0x0 /Applications/STM32CubeIDE.app/Contents/Eclipse/plugins/com.st.stm32cube.ide.mcu.externaltools.gnu-tools-for-stm32.13.3.rel1.macos64_1.0.0.202411102158/tools/bin/../lib/gcc/arm-none-eabi/13.3.1/../../../../arm-none-eabi/lib/thumb/v8-m.main+fp/hard/libc_nano.a(libc_a-freer.o)
 .bss           0x00000000        0x0 /Applications/STM32CubeIDE.app/Contents/Eclipse/plugins/com.st.stm32cube.ide.mcu.externaltools.gnu-tools-for-stm32.13.3.rel1.macos64_1.0.0.202411102158/tools/bin/../lib/gcc/arm-none-eabi/13.3.1/../../../../arm-none-eabi/lib/thumb/v8-m.main+fp/hard/libc_nano.a(libc_a-freer.o)
 .text._free_r  0x00000000       0x94 /Applications/STM32CubeIDE.app/Contents/Eclipse/plugins/com.st.stm32cube.ide.mcu.externaltools.gnu-tools-for-stm32.13.3.rel1.macos64_1.0.0.202411102158/tools/bin/../lib/gcc/arm-none-eabi/13.3.1/../../../../arm-none-eabi/lib/thumb/v8-m.main+fp/hard/libc_nano.a(libc_a-freer.o)
 .debug_frame   0x00000000       0x38 /Applications/STM32CubeIDE.app/Contents/Eclipse/plugins/com.st.stm32cube.ide.mcu.externaltools.gnu-tools-for-stm32.13.3.rel1.macos64_1.0.0.202411102158/tools/bin/../lib/gcc/arm-none-eabi/13.3.1/../../../../arm-none-eabi/lib/thumb/v8-m.main+fp/hard/libc_nano.a(libc_a-freer.o)
 .ARM.attributes
                0x00000000       0x38 /Applications/STM32CubeIDE.app/Contents/Eclipse/plugins/com.st.stm32cube.ide.mcu.externaltools.gnu-tools-for-stm32.13.3.rel1.macos64_1.0.0.202411102158/tools/bin/../lib/gcc/arm-none-eabi/13.3.1/../../../../arm-none-eabi/lib/thumb/v8-m.main+fp/hard/libc_nano.a(libc_a-freer.o)
 .text          0x00000000        0x0 /Applications/STM32CubeIDE.app/Contents/Eclipse/plugins/com.st.stm32cube.ide.mcu.externaltools.gnu-tools-for-stm32.13.3.rel1.macos64_1.0.0.202411102158/tools/bin/../lib/gcc/arm-none-eabi/13.3.1/thumb/v8-m.main+fp/hard/crtend.o
 .data          0x00000000        0x0 /Applications/STM32CubeIDE.app/Contents/Eclipse/plugins/com.st.stm32cube.ide.mcu.externaltools.gnu-tools-for-stm32.13.3.rel1.macos64_1.0.0.202411102158/tools/bin/../lib/gcc/arm-none-eabi/13.3.1/thumb/v8-m.main+fp/hard/crtend.o
 .bss           0x00000000        0x0 /Applications/STM32CubeIDE.app/Contents/Eclipse/plugins/com.st.stm32cube.ide.mcu.externaltools.gnu-tools-for-stm32.13.3.rel1.macos64_1.0.0.202411102158/tools/bin/../lib/gcc/arm-none-eabi/13.3.1/thumb/v8-m.main+fp/hard/crtend.o
 .rodata        0x00000000       0x24 /Applications/STM32CubeIDE.app/Contents/Eclipse/plugins/com.st.stm32cube.ide.mcu.externaltools.gnu-tools-for-stm32.13.3.rel1.macos64_1.0.0.202411102158/tools/bin/../lib/gcc/arm-none-eabi/13.3.1/thumb/v8-m.main+fp/hard/crtend.o
 .eh_frame      0x00000000        0x4 /Applications/STM32CubeIDE.app/Contents/Eclipse/plugins/com.st.stm32cube.ide.mcu.externaltools.gnu-tools-for-stm32.13.3.rel1.macos64_1.0.0.202411102158/tools/bin/../lib/gcc/arm-none-eabi/13.3.1/thumb/v8-m.main+fp/hard/crtend.o
 .ARM.attributes
                0x00000000       0x38 /Applications/STM32CubeIDE.app/Contents/Eclipse/plugins/com.st.stm32cube.ide.mcu.externaltools.gnu-tools-for-stm32.13.3.rel1.macos64_1.0.0.202411102158/tools/bin/../lib/gcc/arm-none-eabi/13.3.1/thumb/v8-m.main+fp/hard/crtend.o
 .text          0x00000000        0x0 /Applications/STM32CubeIDE.app/Contents/Eclipse/plugins/com.st.stm32cube.ide.mcu.externaltools.gnu-tools-for-stm32.13.3.rel1.macos64_1.0.0.202411102158/tools/bin/../lib/gcc/arm-none-eabi/13.3.1/thumb/v8-m.main+fp/hard/crtn.o
 .data          0x00000000        0x0 /Applications/STM32CubeIDE.app/Contents/Eclipse/plugins/com.st.stm32cube.ide.mcu.externaltools.gnu-tools-for-stm32.13.3.rel1.macos64_1.0.0.202411102158/tools/bin/../lib/gcc/arm-none-eabi/13.3.1/thumb/v8-m.main+fp/hard/crtn.o
 .bss           0x00000000        0x0 /Applications/STM32CubeIDE.app/Contents/Eclipse/plugins/com.st.stm32cube.ide.mcu.externaltools.gnu-tools-for-stm32.13.3.rel1.macos64_1.0.0.202411102158/tools/bin/../lib/gcc/arm-none-eabi/13.3.1/thumb/v8-m.main+fp/hard/crtn.o

Memory Configuration

Name             Origin             Length             Attributes
RAM              0x20000000         0x000a0000         xrw
FLASH            0x08000000         0x00200000         xr
*default*        0x00000000         0xffffffff

Linker script and memory map

LOAD /Applications/STM32CubeIDE.app/Contents/Eclipse/plugins/com.st.stm32cube.ide.mcu.externaltools.gnu-tools-for-stm32.13.3.rel1.macos64_1.0.0.202411102158/tools/bin/../lib/gcc/arm-none-eabi/13.3.1/thumb/v8-m.main+fp/hard/crti.o
LOAD /Applications/STM32CubeIDE.app/Contents/Eclipse/plugins/com.st.stm32cube.ide.mcu.externaltools.gnu-tools-for-stm32.13.3.rel1.macos64_1.0.0.202411102158/tools/bin/../lib/gcc/arm-none-eabi/13.3.1/thumb/v8-m.main+fp/hard/crtbegin.o
LOAD /Applications/STM32CubeIDE.app/Contents/Eclipse/plugins/com.st.stm32cube.ide.mcu.externaltools.gnu-tools-for-stm32.13.3.rel1.macos64_1.0.0.202411102158/tools/bin/../lib/gcc/arm-none-eabi/13.3.1/../../../../arm-none-eabi/lib/thumb/v8-m.main+fp/hard/crt0.o
LOAD ./Application/User/Core/main.o
LOAD ./Application/User/Core/stm32h5xx_hal_msp.o
LOAD ./Application/User/Core/stm32h5xx_it.o
LOAD ./Application/User/Core/syscalls.o
LOAD ./Application/User/Core/sysmem.o
LOAD ./Application/User/Startup/startup_stm32h563zitx.o
LOAD ./Drivers/CMSIS/system_stm32h5xx.o
LOAD ./Drivers/STM32H5xx_HAL_Driver/stm32h5xx_hal.o
LOAD ./Drivers/STM32H5xx_HAL_Driver/stm32h5xx_hal_cortex.o
LOAD ./Drivers/STM32H5xx_HAL_Driver/stm32h5xx_hal_dma.o
LOAD ./Drivers/STM32H5xx_HAL_Driver/stm32h5xx_hal_exti.o
LOAD ./Drivers/STM32H5xx_HAL_Driver/stm32h5xx_hal_flash.o
LOAD ./Drivers/STM32H5xx_HAL_Driver/stm32h5xx_hal_flash_ex.o
LOAD ./Drivers/STM32H5xx_HAL_Driver/stm32h5xx_hal_gpio.o
LOAD ./Drivers/STM32H5xx_HAL_Driver/stm32h5xx_hal_icache.o
LOAD ./Drivers/STM32H5xx_HAL_Driver/stm32h5xx_hal_pwr.o
LOAD ./Drivers/STM32H5xx_HAL_Driver/stm32h5xx_hal_pwr_ex.o
LOAD ./Drivers/STM32H5xx_HAL_Driver/stm32h5xx_hal_rcc.o
LOAD ./Drivers/STM32H5xx_HAL_Driver/stm32h5xx_hal_rcc_ex.o
LOAD ./Drivers/STM32H5xx_HAL_Driver/stm32h5xx_ll_exti.o
LOAD ./Drivers/STM32H5xx_HAL_Driver/stm32h5xx_ll_gpio.o
LOAD ./Drivers/STM32H5xx_HAL_Driver/stm32h5xx_ll_rcc.o
LOAD ./Drivers/STM32H5xx_HAL_Driver/stm32h5xx_ll_utils.o
START GROUP
LOAD /Applications/STM32CubeIDE.app/Contents/Eclipse/plugins/com.st.stm32cube.ide.mcu.externaltools.gnu-tools-for-stm32.13.3.rel1.macos64_1.0.0.202411102158/tools/bin/../lib/gcc/arm-none-eabi/13.3.1/../../../../arm-none-eabi/lib/thumb/v8-m.main+fp/hard/libc_nano.a
LOAD /Applications/STM32CubeIDE.app/Contents/Eclipse/plugins/com.st.stm32cube.ide.mcu.externaltools.gnu-tools-for-stm32.13.3.rel1.macos64_1.0.0.202411102158/tools/bin/../lib/gcc/arm-none-eabi/13.3.1/../../../../arm-none-eabi/lib/thumb/v8-m.main+fp/hard/libm.a
END GROUP
START GROUP
LOAD /Applications/STM32CubeIDE.app/Contents/Eclipse/plugins/com.st.stm32cube.ide.mcu.externaltools.gnu-tools-for-stm32.13.3.rel1.macos64_1.0.0.202411102158/tools/bin/../lib/gcc/arm-none-eabi/13.3.1/thumb/v8-m.main+fp/hard/libgcc.a
LOAD /Applications/STM32CubeIDE.app/Contents/Eclipse/plugins/com.st.stm32cube.ide.mcu.externaltools.gnu-tools-for-stm32.13.3.rel1.macos64_1.0.0.202411102158/tools/bin/../lib/gcc/arm-none-eabi/13.3.1/../../../../arm-none-eabi/lib/thumb/v8-m.main+fp/hard/libc_nano.a
END GROUP
START GROUP
LOAD /Applications/STM32CubeIDE.app/Contents/Eclipse/plugins/com.st.stm32cube.ide.mcu.externaltools.gnu-tools-for-stm32.13.3.rel1.macos64_1.0.0.202411102158/tools/bin/../lib/gcc/arm-none-eabi/13.3.1/thumb/v8-m.main+fp/hard/libgcc.a
LOAD /Applications/STM32CubeIDE.app/Contents/Eclipse/plugins/com.st.stm32cube.ide.mcu.externaltools.gnu-tools-for-stm32.13.3.rel1.macos64_1.0.0.202411102158/tools/bin/../lib/gcc/arm-none-eabi/13.3.1/../../../../arm-none-eabi/lib/thumb/v8-m.main+fp/hard/libc_nano.a
LOAD /Applications/STM32CubeIDE.app/Contents/Eclipse/plugins/com.st.stm32cube.ide.mcu.externaltools.gnu-tools-for-stm32.13.3.rel1.macos64_1.0.0.202411102158/tools/bin/../lib/gcc/arm-none-eabi/13.3.1/../../../../arm-none-eabi/lib/thumb/v8-m.main+fp/hard/libnosys.a
END GROUP
START GROUP
LOAD /Applications/STM32CubeIDE.app/Contents/Eclipse/plugins/com.st.stm32cube.ide.mcu.externaltools.gnu-tools-for-stm32.13.3.rel1.macos64_1.0.0.202411102158/tools/bin/../lib/gcc/arm-none-eabi/13.3.1/thumb/v8-m.main+fp/hard/libgcc.a
LOAD /Applications/STM32CubeIDE.app/Contents/Eclipse/plugins/com.st.stm32cube.ide.mcu.externaltools.gnu-tools-for-stm32.13.3.rel1.macos64_1.0.0.202411102158/tools/bin/../lib/gcc/arm-none-eabi/13.3.1/../../../../arm-none-eabi/lib/thumb/v8-m.main+fp/hard/libc_nano.a
LOAD /Applications/STM32CubeIDE.app/Contents/Eclipse/plugins/com.st.stm32cube.ide.mcu.externaltools.gnu-tools-for-stm32.13.3.rel1.macos64_1.0.0.202411102158/tools/bin/../lib/gcc/arm-none-eabi/13.3.1/../../../../arm-none-eabi/lib/thumb/v8-m.main+fp/hard/libnosys.a
END GROUP
LOAD /Applications/STM32CubeIDE.app/Contents/Eclipse/plugins/com.st.stm32cube.ide.mcu.externaltools.gnu-tools-for-stm32.13.3.rel1.macos64_1.0.0.202411102158/tools/bin/../lib/gcc/arm-none-eabi/13.3.1/thumb/v8-m.main+fp/hard/crtend.o
LOAD /Applications/STM32CubeIDE.app/Contents/Eclipse/plugins/com.st.stm32cube.ide.mcu.externaltools.gnu-tools-for-stm32.13.3.rel1.macos64_1.0.0.202411102158/tools/bin/../lib/gcc/arm-none-eabi/13.3.1/thumb/v8-m.main+fp/hard/crtn.o
                0x200a0000                        _estack = (ORIGIN (RAM) + LENGTH (RAM))
                0x00000200                        _Min_Heap_Size = 0x200
                0x00000400                        _Min_Stack_Size = 0x400

.isr_vector     0x08000000      0x24c
                0x08000000                        . = ALIGN (0x4)
 *(.isr_vector)
 .isr_vector    0x08000000      0x24c ./Application/User/Startup/startup_stm32h563zitx.o
                0x08000000                g_pfnVectors
                0x0800024c                        . = ALIGN (0x4)

.text           0x0800024c     0x161c
                0x0800024c                        . = ALIGN (0x4)
 *(.text)
 .text          0x0800024c       0x40 /Applications/STM32CubeIDE.app/Contents/Eclipse/plugins/com.st.stm32cube.ide.mcu.externaltools.gnu-tools-for-stm32.13.3.rel1.macos64_1.0.0.202411102158/tools/bin/../lib/gcc/arm-none-eabi/13.3.1/thumb/v8-m.main+fp/hard/crtbegin.o
 *(.text*)
 .text.uart_bypass
                0x0800028c       0xd0 ./Application/User/Core/main.o
 .text.SystemClock_Config
                0x0800035c       0xb0 ./Application/User/Core/main.o
                0x0800035c                SystemClock_Config
 .text.startup.main
                0x0800040c      0x224 ./Application/User/Core/main.o
                0x0800040c                main
 .text.HAL_MspInit
                0x08000630        0x4 ./Application/User/Core/stm32h5xx_hal_msp.o
                0x08000630                HAL_MspInit
 .text.NMI_Handler
                0x08000634        0x4 ./Application/User/Core/stm32h5xx_it.o
                0x08000634                NMI_Handler
 .text.HardFault_Handler
                0x08000638        0x4 ./Application/User/Core/stm32h5xx_it.o
                0x08000638                HardFault_Handler
 .text.MemManage_Handler
                0x0800063c        0x4 ./Application/User/Core/stm32h5xx_it.o
                0x0800063c                MemManage_Handler
 .text.BusFault_Handler
                0x08000640        0x4 ./Application/User/Core/stm32h5xx_it.o
                0x08000640                BusFault_Handler
 .text.UsageFault_Handler
                0x08000644        0x4 ./Application/User/Core/stm32h5xx_it.o
                0x08000644                UsageFault_Handler
 .text.SVC_Handler
                0x08000648        0x4 ./Application/User/Core/stm32h5xx_it.o
                0x08000648                SVC_Handler
 .text.DebugMon_Handler
                0x0800064c        0x4 ./Application/User/Core/stm32h5xx_it.o
                0x0800064c                DebugMon_Handler
 .text.PendSV_Handler
                0x08000650        0x4 ./Application/User/Core/stm32h5xx_it.o
                0x08000650                PendSV_Handler
 .text.SysTick_Handler
                0x08000654        0x4 ./Application/User/Core/stm32h5xx_it.o
                0x08000654                SysTick_Handler
 .text.EXTI13_IRQHandler
                0x08000658       0x14 ./Application/User/Core/stm32h5xx_it.o
                0x08000658                EXTI13_IRQHandler
 .text.Reset_Handler
                0x0800066c       0x50 ./Application/User/Startup/startup_stm32h563zitx.o
                0x0800066c                Reset_Handler
 .text.Default_Handler
                0x080006bc        0x2 ./Application/User/Startup/startup_stm32h563zitx.o
                0x080006bc                HASH_IRQHandler
                0x080006bc                TIM8_TRG_COM_IRQHandler
                0x080006bc                TIM8_CC_IRQHandler
                0x080006bc                EXTI5_IRQHandler
                0x080006bc                I3C1_ER_IRQHandler
                0x080006bc                UART8_IRQHandler
                0x080006bc                SPI4_IRQHandler
                0x080006bc                GPDMA2_Channel1_IRQHandler
                0x080006bc                FLASH_S_IRQHandler
                0x080006bc                TIM1_CC_IRQHandler
                0x080006bc                GPDMA2_Channel3_IRQHandler
                0x080006bc                TAMP_IRQHandler
                0x080006bc                TIM6_IRQHandler
                0x080006bc                EXTI12_IRQHandler
                0x080006bc                CORDIC_IRQHandler
                0x080006bc                USB_DRD_FS_IRQHandler
                0x080006bc                EXTI3_IRQHandler
                0x080006bc                LPTIM4_IRQHandler
                0x080006bc                GPDMA1_Channel5_IRQHandler
                0x080006bc                EXTI8_IRQHandler
                0x080006bc                GPDMA2_Channel5_IRQHandler
                0x080006bc                LPTIM2_IRQHandler
                0x080006bc                I2C3_ER_IRQHandler
                0x080006bc                GPDMA2_Channel2_IRQHandler
                0x080006bc                USART10_IRQHandler
                0x080006bc                LPTIM3_IRQHandler
                0x080006bc                EXTI0_IRQHandler
                0x080006bc                I2C2_EV_IRQHandler
                0x080006bc                FPU_IRQHandler
                0x080006bc                GPDMA1_Channel3_IRQHandler
                0x080006bc                GPDMA1_Channel7_IRQHandler
                0x080006bc                FDCAN1_IT1_IRQHandler
                0x080006bc                RAMCFG_IRQHandler
                0x080006bc                DCACHE1_IRQHandler
                0x080006bc                SPI1_IRQHandler
                0x080006bc                OCTOSPI1_IRQHandler
                0x080006bc                GPDMA1_Channel2_IRQHandler
                0x080006bc                TIM8_UP_IRQHandler
                0x080006bc                RCC_S_IRQHandler
                0x080006bc                SAI2_IRQHandler
                0x080006bc                ADC1_IRQHandler
                0x080006bc                USART6_IRQHandler
                0x080006bc                EXTI15_IRQHandler
                0x080006bc                TIM17_IRQHandler
                0x080006bc                USART3_IRQHandler
                0x080006bc                RTC_IRQHandler
                0x080006bc                EXTI9_IRQHandler
                0x080006bc                LPTIM5_IRQHandler
                0x080006bc                UART5_IRQHandler
                0x080006bc                TIM4_IRQHandler
                0x080006bc                I2C1_EV_IRQHandler
                0x080006bc                GPDMA1_Channel1_IRQHandler
                0x080006bc                TIM16_IRQHandler
                0x080006bc                UART4_IRQHandler
                0x080006bc                SecureFault_Handler
                0x080006bc                TIM3_IRQHandler
                0x080006bc                RCC_IRQHandler
                0x080006bc                UART9_IRQHandler
                0x080006bc                TIM1_TRG_COM_IRQHandler
                0x080006bc                Default_Handler
                0x080006bc                FMAC_IRQHandler
                0x080006bc                CEC_IRQHandler
                0x080006bc                USART11_IRQHandler
                0x080006bc                TIM14_IRQHandler
                0x080006bc                TIM13_IRQHandler
                0x080006bc                GPDMA2_Channel4_IRQHandler
                0x080006bc                SPI5_IRQHandler
                0x080006bc                TIM12_IRQHandler
                0x080006bc                TIM7_IRQHandler
                0x080006bc                SDMMC1_IRQHandler
                0x080006bc                TIM5_IRQHandler
                0x080006bc                UCPD1_IRQHandler
                0x080006bc                GPDMA1_Channel0_IRQHandler
                0x080006bc                I3C1_EV_IRQHandler
                0x080006bc                TIM15_IRQHandler
                0x080006bc                PVD_AVD_IRQHandler
                0x080006bc                I2C3_EV_IRQHandler
                0x080006bc                ETH_WKUP_IRQHandler
                0x080006bc                ADC2_IRQHandler
                0x080006bc                SPI2_IRQHandler
                0x080006bc                EXTI14_IRQHandler
                0x080006bc                EXTI11_IRQHandler
                0x080006bc                CRS_IRQHandler
                0x080006bc                EXTI4_IRQHandler
                0x080006bc                GPDMA2_Channel0_IRQHandler
                0x080006bc                RTC_S_IRQHandler
                0x080006bc                RNG_IRQHandler
                0x080006bc                FDCAN2_IT1_IRQHandler
                0x080006bc                ETH_IRQHandler
                0x080006bc                GPDMA2_Channel6_IRQHandler
                0x080006bc                TIM1_UP_IRQHandler
                0x080006bc                UART12_IRQHandler
                0x080006bc                WWDG_IRQHandler
                0x080006bc                SPI6_IRQHandler
                0x080006bc                I2C4_EV_IRQHandler
                0x080006bc                FDCAN2_IT0_IRQHandler
                0x080006bc                IWDG_IRQHandler
                0x080006bc                LPUART1_IRQHandler
                0x080006bc                FDCAN1_IT0_IRQHandler
                0x080006bc                TIM2_IRQHandler
                0x080006bc                GPDMA1_Channel4_IRQHandler
                0x080006bc                EXTI7_IRQHandler
                0x080006bc                TIM1_BRK_IRQHandler
                0x080006bc                EXTI1_IRQHandler
                0x080006bc                SDMMC2_IRQHandler
                0x080006bc                LPTIM6_IRQHandler
                0x080006bc                DAC1_IRQHandler
                0x080006bc                DTS_IRQHandler
                0x080006bc                UART7_IRQHandler
                0x080006bc                GTZC_IRQHandler
                0x080006bc                USART2_IRQHandler
                0x080006bc                GPDMA1_Channel6_IRQHandler
                0x080006bc                GPDMA2_Channel7_IRQHandler
                0x080006bc                I2C2_ER_IRQHandler
                0x080006bc                TIM8_BRK_IRQHandler
                0x080006bc                FLASH_IRQHandler
                0x080006bc                USART1_IRQHandler
                0x080006bc                EXTI10_IRQHandler
                0x080006bc                SPI3_IRQHandler
                0x080006bc                I2C1_ER_IRQHandler
                0x080006bc                FMC_IRQHandler
                0x080006bc                EXTI6_IRQHandler
                0x080006bc                LPTIM1_IRQHandler
                0x080006bc                DCMI_PSSI_IRQHandler
                0x080006bc                I2C4_ER_IRQHandler
                0x080006bc                ICACHE_IRQHandler
                0x080006bc                SAI1_IRQHandler
                0x080006bc                EXTI2_IRQHandler
 *fill*         0x080006be        0x2 
 .text.SystemInit
                0x080006c0       0x9c ./Drivers/CMSIS/system_stm32h5xx.o
                0x080006c0                SystemInit
 .text.HAL_InitTick
                0x0800075c       0xa0 ./Drivers/STM32H5xx_HAL_Driver/stm32h5xx_hal.o
                0x0800075c                HAL_InitTick
 .text.HAL_Init
                0x080007fc       0x4c ./Drivers/STM32H5xx_HAL_Driver/stm32h5xx_hal.o
                0x080007fc                HAL_Init
 .text.HAL_IncTick
                0x08000848       0x18 ./Drivers/STM32H5xx_HAL_Driver/stm32h5xx_hal.o
                0x08000848                HAL_IncTick
 .text.HAL_GetTick
                0x08000860        0xc ./Drivers/STM32H5xx_HAL_Driver/stm32h5xx_hal.o
                0x08000860                HAL_GetTick
 .text.HAL_Delay
                0x0800086c       0x24 ./Drivers/STM32H5xx_HAL_Driver/stm32h5xx_hal.o
                0x0800086c                HAL_Delay
 .text.HAL_NVIC_SetPriorityGrouping
                0x08000890       0x24 ./Drivers/STM32H5xx_HAL_Driver/stm32h5xx_hal_cortex.o
                0x08000890                HAL_NVIC_SetPriorityGrouping
 .text.HAL_NVIC_SetPriority
                0x080008b4       0x78 ./Drivers/STM32H5xx_HAL_Driver/stm32h5xx_hal_cortex.o
                0x080008b4                HAL_NVIC_SetPriority
 .text.HAL_SYSTICK_Config
                0x0800092c       0x20 ./Drivers/STM32H5xx_HAL_Driver/stm32h5xx_hal_cortex.o
                0x0800092c                HAL_SYSTICK_Config
 .text.HAL_SYSTICK_CLKSourceConfig
                0x0800094c       0x7c ./Drivers/STM32H5xx_HAL_Driver/stm32h5xx_hal_cortex.o
                0x0800094c                HAL_SYSTICK_CLKSourceConfig
 .text.HAL_SYSTICK_GetCLKSourceConfig
                0x080009c8       0x34 ./Drivers/STM32H5xx_HAL_Driver/stm32h5xx_hal_cortex.o
                0x080009c8                HAL_SYSTICK_GetCLKSourceConfig
 .text.HAL_ICACHE_Enable
                0x080009fc       0x14 ./Drivers/STM32H5xx_HAL_Driver/stm32h5xx_hal_icache.o
                0x080009fc                HAL_ICACHE_Enable
 .text.HAL_PWREx_DisableUCPDDeadBattery
                0x08000a10       0x10 ./Drivers/STM32H5xx_HAL_Driver/stm32h5xx_hal_pwr_ex.o
                0x08000a10                HAL_PWREx_DisableUCPDDeadBattery
 .text.HAL_RCC_GetSysClockFreq.part.0
                0x08000a20      0x128 ./Drivers/STM32H5xx_HAL_Driver/stm32h5xx_hal_rcc.o
 .text.HAL_RCC_OscConfig
                0x08000b48      0x6ac ./Drivers/STM32H5xx_HAL_Driver/stm32h5xx_hal_rcc.o
                0x08000b48                HAL_RCC_OscConfig
 .text.HAL_RCC_ClockConfig
                0x080011f4      0x2ac ./Drivers/STM32H5xx_HAL_Driver/stm32h5xx_hal_rcc.o
                0x080011f4                HAL_RCC_ClockConfig
 .text.HAL_RCC_GetSysClockFreq
                0x080014a0       0x5c ./Drivers/STM32H5xx_HAL_Driver/stm32h5xx_hal_rcc.o
                0x080014a0                HAL_RCC_GetSysClockFreq
 .text.LL_EXTI_Init
                0x080014fc      0x1a0 ./Drivers/STM32H5xx_HAL_Driver/stm32h5xx_ll_exti.o
                0x080014fc                LL_EXTI_Init
 .text.LL_GPIO_Init
                0x0800169c      0x15c ./Drivers/STM32H5xx_HAL_Driver/stm32h5xx_ll_gpio.o
                0x0800169c                LL_GPIO_Init
 .text.memset   0x080017f8       0x10 /Applications/STM32CubeIDE.app/Contents/Eclipse/plugins/com.st.stm32cube.ide.mcu.externaltools.gnu-tools-for-stm32.13.3.rel1.macos64_1.0.0.202411102158/tools/bin/../lib/gcc/arm-none-eabi/13.3.1/../../../../arm-none-eabi/lib/thumb/v8-m.main+fp/hard/libc_nano.a(libc_a-memset.o)
                0x080017f8                memset
 .text.__libc_init_array
                0x08001808       0x48 /Applications/STM32CubeIDE.app/Contents/Eclipse/plugins/com.st.stm32cube.ide.mcu.externaltools.gnu-tools-for-stm32.13.3.rel1.macos64_1.0.0.202411102158/tools/bin/../lib/gcc/arm-none-eabi/13.3.1/../../../../arm-none-eabi/lib/thumb/v8-m.main+fp/hard/libc_nano.a(libc_a-init.o)
                0x08001808                __libc_init_array
 *(.glue_7)
 .glue_7        0x08001850        0x0 linker stubs
 *(.glue_7t)
 .glue_7t       0x08001850        0x0 linker stubs
 *(.eh_frame)
 .eh_frame      0x08001850        0x0 /Applications/STM32CubeIDE.app/Contents/Eclipse/plugins/com.st.stm32cube.ide.mcu.externaltools.gnu-tools-for-stm32.13.3.rel1.macos64_1.0.0.202411102158/tools/bin/../lib/gcc/arm-none-eabi/13.3.1/thumb/v8-m.main+fp/hard/crtbegin.o
 *(.init)
 .init          0x08001850        0x4 /Applications/STM32CubeIDE.app/Contents/Eclipse/plugins/com.st.stm32cube.ide.mcu.externaltools.gnu-tools-for-stm32.13.3.rel1.macos64_1.0.0.202411102158/tools/bin/../lib/gcc/arm-none-eabi/13.3.1/thumb/v8-m.main+fp/hard/crti.o
                0x08001850                _init
 .init          0x08001854        0x8 /Applications/STM32CubeIDE.app/Contents/Eclipse/plugins/com.st.stm32cube.ide.mcu.externaltools.gnu-tools-for-stm32.13.3.rel1.macos64_1.0.0.202411102158/tools/bin/../lib/gcc/arm-none-eabi/13.3.1/thumb/v8-m.main+fp/hard/crtn.o
 *(.fini)
 .fini          0x0800185c        0x4 /Applications/STM32CubeIDE.app/Contents/Eclipse/plugins/com.st.stm32cube.ide.mcu.externaltools.gnu-tools-for-stm32.13.3.rel1.macos64_1.0.0.202411102158/tools/bin/../lib/gcc/arm-none-eabi/13.3.1/thumb/v8-m.main+fp/hard/crti.o
                0x0800185c                _fini
 .fini          0x08001860        0x8 /Applications/STM32CubeIDE.app/Contents/Eclipse/plugins/com.st.stm32cube.ide.mcu.externaltools.gnu-tools-for-stm32.13.3.rel1.macos64_1.0.0.202411102158/tools/bin/../lib/gcc/arm-none-eabi/13.3.1/thumb/v8-m.main+fp/hard/crtn.o
                0x08001868                        . = ALIGN (0x4)
                0x08001868                        _etext = .

.vfp11_veneer   0x08001868        0x0
 .vfp11_veneer  0x08001868        0x0 linker stubs

.v4_bx          0x08001868        0x0
 .v4_bx         0x08001868        0x0 linker stubs

.iplt           0x08001868        0x0
 .iplt          0x08001868        0x0 /Applications/STM32CubeIDE.app/Contents/Eclipse/plugins/com.st.stm32cube.ide.mcu.externaltools.gnu-tools-for-stm32.13.3.rel1.macos64_1.0.0.202411102158/tools/bin/../lib/gcc/arm-none-eabi/13.3.1/thumb/v8-m.main+fp/hard/crtbegin.o

.rodata         0x08001868       0x10
                0x08001868                        . = ALIGN (0x4)
 *(.rodata)
 *(.rodata*)
 .rodata.AHBPrescTable
                0x08001868       0x10 ./Drivers/CMSIS/system_stm32h5xx.o
                0x08001868                AHBPrescTable
                0x08001878                        . = ALIGN (0x4)

.ARM.extab      0x08001878        0x0
                0x08001878                        . = ALIGN (0x4)
 *(.ARM.extab* .gnu.linkonce.armextab.*)
                0x08001878                        . = ALIGN (0x4)

.ARM            0x08001878        0x0
                0x08001878                        . = ALIGN (0x4)
                0x08001878                        __exidx_start = .
 *(.ARM.exidx*)
                0x08001878                        __exidx_end = .
                0x08001878                        . = ALIGN (0x4)

.preinit_array  0x08001878        0x0
                0x08001878                        . = ALIGN (0x4)
                0x08001878                        PROVIDE (__preinit_array_start = .)
 *(.preinit_array*)
                0x08001878                        PROVIDE (__preinit_array_end = .)
                0x08001878                        . = ALIGN (0x4)

.init_array     0x08001878        0x4
                0x08001878                        . = ALIGN (0x4)
                0x08001878                        PROVIDE (__init_array_start = .)
 *(SORT_BY_NAME(.init_array.*))
 *(.init_array*)
 .init_array    0x08001878        0x4 /Applications/STM32CubeIDE.app/Contents/Eclipse/plugins/com.st.stm32cube.ide.mcu.externaltools.gnu-tools-for-stm32.13.3.rel1.macos64_1.0.0.202411102158/tools/bin/../lib/gcc/arm-none-eabi/13.3.1/thumb/v8-m.main+fp/hard/crtbegin.o
                0x0800187c                        PROVIDE (__init_array_end = .)
                0x0800187c                        . = ALIGN (0x4)

.fini_array     0x0800187c        0x4
                0x0800187c                        . = ALIGN (0x4)
                [!provide]                        PROVIDE (__fini_array_start = .)
 *(SORT_BY_NAME(.fini_array.*))
 *(.fini_array*)
 .fini_array    0x0800187c        0x4 /Applications/STM32CubeIDE.app/Contents/Eclipse/plugins/com.st.stm32cube.ide.mcu.externaltools.gnu-tools-for-stm32.13.3.rel1.macos64_1.0.0.202411102158/tools/bin/../lib/gcc/arm-none-eabi/13.3.1/thumb/v8-m.main+fp/hard/crtbegin.o
                [!provide]                        PROVIDE (__fini_array_end = .)
                0x08001880                        . = ALIGN (0x4)
                0x08001880                        _sidata = LOADADDR (.data)

.rel.dyn        0x08001880        0x0
 .rel.iplt      0x08001880        0x0 /Applications/STM32CubeIDE.app/Contents/Eclipse/plugins/com.st.stm32cube.ide.mcu.externaltools.gnu-tools-for-stm32.13.3.rel1.macos64_1.0.0.202411102158/tools/bin/../lib/gcc/arm-none-eabi/13.3.1/thumb/v8-m.main+fp/hard/crtbegin.o

.data           0x20000000        0xc load address 0x08001880
                0x20000000                        . = ALIGN (0x4)
                0x20000000                        _sdata = .
 *(.data)
 *(.data*)
 .data.SystemCoreClock
                0x20000000        0x4 ./Drivers/CMSIS/system_stm32h5xx.o
                0x20000000                SystemCoreClock
 .data.uwTickFreq
                0x20000004        0x1 ./Drivers/STM32H5xx_HAL_Driver/stm32h5xx_hal.o
                0x20000004                uwTickFreq
 *fill*         0x20000005        0x3 
 .data.uwTickPrio
                0x20000008        0x4 ./Drivers/STM32H5xx_HAL_Driver/stm32h5xx_hal.o
                0x20000008                uwTickPrio
 *(.RamFunc)
 *(.RamFunc*)
                0x2000000c                        . = ALIGN (0x4)
                0x2000000c                        _edata = .

.igot.plt       0x2000000c        0x0 load address 0x0800188c
 .igot.plt      0x2000000c        0x0 /Applications/STM32CubeIDE.app/Contents/Eclipse/plugins/com.st.stm32cube.ide.mcu.externaltools.gnu-tools-for-stm32.13.3.rel1.macos64_1.0.0.202411102158/tools/bin/../lib/gcc/arm-none-eabi/13.3.1/thumb/v8-m.main+fp/hard/crtbegin.o
                0x2000000c                        . = ALIGN (0x4)

.bss            0x2000000c       0x24 load address 0x0800188c
                0x2000000c                        _sbss = .
                0x2000000c                        __bss_start__ = _sbss
 *(.bss)
 .bss           0x2000000c       0x1c /Applications/STM32CubeIDE.app/Contents/Eclipse/plugins/com.st.stm32cube.ide.mcu.externaltools.gnu-tools-for-stm32.13.3.rel1.macos64_1.0.0.202411102158/tools/bin/../lib/gcc/arm-none-eabi/13.3.1/thumb/v8-m.main+fp/hard/crtbegin.o
 *(.bss*)
 .bss.pushbutton
                0x20000028        0x4 ./Application/User/Core/main.o
                0x20000028                pushbutton
 .bss.uwTick    0x2000002c        0x4 ./Drivers/STM32H5xx_HAL_Driver/stm32h5xx_hal.o
                0x2000002c                uwTick
 *(COMMON)
                0x20000030                        . = ALIGN (0x4)
                0x20000030                        _ebss = .
                0x20000030                        __bss_end__ = _ebss

._user_heap_stack
                0x20000030      0x600 load address 0x0800188c
                0x20000030                        . = ALIGN (0x8)
                [!provide]                        PROVIDE (end = .)
                0x20000030                        PROVIDE (_end = .)
                0x20000230                        . = (. + _Min_Heap_Size)
 *fill*         0x20000030      0x200 
                0x20000630                        . = (. + _Min_Stack_Size)
 *fill*         0x20000230      0x400 
                0x20000630                        . = ALIGN (0x8)

/DISCARD/
 libc.a(*)
 libm.a(*)
 libgcc.a(*)

.ARM.attributes
                0x00000000       0x36
 *(.ARM.attributes)
 .ARM.attributes
                0x00000000       0x26 /Applications/STM32CubeIDE.app/Contents/Eclipse/plugins/com.st.stm32cube.ide.mcu.externaltools.gnu-tools-for-stm32.13.3.rel1.macos64_1.0.0.202411102158/tools/bin/../lib/gcc/arm-none-eabi/13.3.1/thumb/v8-m.main+fp/hard/crti.o
 .ARM.attributes
                0x00000026       0x38 /Applications/STM32CubeIDE.app/Contents/Eclipse/plugins/com.st.stm32cube.ide.mcu.externaltools.gnu-tools-for-stm32.13.3.rel1.macos64_1.0.0.202411102158/tools/bin/../lib/gcc/arm-none-eabi/13.3.1/thumb/v8-m.main+fp/hard/crtbegin.o
 .ARM.attributes
                0x0000005e       0x36 ./Application/User/Core/main.o
 .ARM.attributes
                0x00000094       0x36 ./Application/User/Core/stm32h5xx_hal_msp.o
 .ARM.attributes
                0x000000ca       0x36 ./Application/User/Core/stm32h5xx_it.o
 .ARM.attributes
                0x00000100       0x24 ./Application/User/Startup/startup_stm32h563zitx.o
 .ARM.attributes
                0x00000124       0x36 ./Drivers/CMSIS/system_stm32h5xx.o
 .ARM.attributes
                0x0000015a       0x36 ./Drivers/STM32H5xx_HAL_Driver/stm32h5xx_hal.o
 .ARM.attributes
                0x00000190       0x36 ./Drivers/STM32H5xx_HAL_Driver/stm32h5xx_hal_cortex.o
 .ARM.attributes
                0x000001c6       0x36 ./Drivers/STM32H5xx_HAL_Driver/stm32h5xx_hal_icache.o
 .ARM.attributes
                0x000001fc       0x36 ./Drivers/STM32H5xx_HAL_Driver/stm32h5xx_hal_pwr_ex.o
 .ARM.attributes
                0x00000232       0x36 ./Drivers/STM32H5xx_HAL_Driver/stm32h5xx_hal_rcc.o
 .ARM.attributes
                0x00000268       0x36 ./Drivers/STM32H5xx_HAL_Driver/stm32h5xx_ll_exti.o
 .ARM.attributes
                0x0000029e       0x36 ./Drivers/STM32H5xx_HAL_Driver/stm32h5xx_ll_gpio.o
 .ARM.attributes
                0x000002d4       0x38 /Applications/STM32CubeIDE.app/Contents/Eclipse/plugins/com.st.stm32cube.ide.mcu.externaltools.gnu-tools-for-stm32.13.3.rel1.macos64_1.0.0.202411102158/tools/bin/../lib/gcc/arm-none-eabi/13.3.1/../../../../arm-none-eabi/lib/thumb/v8-m.main+fp/hard/libc_nano.a(libc_a-memset.o)
 .ARM.attributes
                0x0000030c       0x38 /Applications/STM32CubeIDE.app/Contents/Eclipse/plugins/com.st.stm32cube.ide.mcu.externaltools.gnu-tools-for-stm32.13.3.rel1.macos64_1.0.0.202411102158/tools/bin/../lib/gcc/arm-none-eabi/13.3.1/../../../../arm-none-eabi/lib/thumb/v8-m.main+fp/hard/libc_nano.a(libc_a-init.o)
 .ARM.attributes
                0x00000344       0x26 /Applications/STM32CubeIDE.app/Contents/Eclipse/plugins/com.st.stm32cube.ide.mcu.externaltools.gnu-tools-for-stm32.13.3.rel1.macos64_1.0.0.202411102158/tools/bin/../lib/gcc/arm-none-eabi/13.3.1/thumb/v8-m.main+fp/hard/crtn.o
OUTPUT(NCP_Loader.elf elf32-littlearm)
LOAD linker stubs
LOAD /Applications/STM32CubeIDE.app/Contents/Eclipse/plugins/com.st.stm32cube.ide.mcu.externaltools.gnu-tools-for-stm32.13.3.rel1.macos64_1.0.0.202411102158/tools/bin/../lib/gcc/arm-none-eabi/13.3.1/../../../../arm-none-eabi/lib/thumb/v8-m.main+fp/hard/libc.a
LOAD /Applications/STM32CubeIDE.app/Contents/Eclipse/plugins/com.st.stm32cube.ide.mcu.externaltools.gnu-tools-for-stm32.13.3.rel1.macos64_1.0.0.202411102158/tools/bin/../lib/gcc/arm-none-eabi/13.3.1/../../../../arm-none-eabi/lib/thumb/v8-m.main+fp/hard/libm.a
LOAD /Applications/STM32CubeIDE.app/Contents/Eclipse/plugins/com.st.stm32cube.ide.mcu.externaltools.gnu-tools-for-stm32.13.3.rel1.macos64_1.0.0.202411102158/tools/bin/../lib/gcc/arm-none-eabi/13.3.1/thumb/v8-m.main+fp/hard/libgcc.a

.comment        0x00000000       0x43
 .comment       0x00000000       0x43 ./Application/User/Core/main.o
                                 0x44 (size before relaxing)
 .comment       0x00000043       0x44 ./Application/User/Core/stm32h5xx_hal_msp.o
 .comment       0x00000043       0x44 ./Application/User/Core/stm32h5xx_it.o
 .comment       0x00000043       0x44 ./Drivers/CMSIS/system_stm32h5xx.o
 .comment       0x00000043       0x44 ./Drivers/STM32H5xx_HAL_Driver/stm32h5xx_hal.o
 .comment       0x00000043       0x44 ./Drivers/STM32H5xx_HAL_Driver/stm32h5xx_hal_cortex.o
 .comment       0x00000043       0x44 ./Drivers/STM32H5xx_HAL_Driver/stm32h5xx_hal_icache.o
 .comment       0x00000043       0x44 ./Drivers/STM32H5xx_HAL_Driver/stm32h5xx_hal_pwr_ex.o
 .comment       0x00000043       0x44 ./Drivers/STM32H5xx_HAL_Driver/stm32h5xx_hal_rcc.o
 .comment       0x00000043       0x44 ./Drivers/STM32H5xx_HAL_Driver/stm32h5xx_ll_exti.o
 .comment       0x00000043       0x44 ./Drivers/STM32H5xx_HAL_Driver/stm32h5xx_ll_gpio.o

.debug_frame    0x00000000       0x4c
 .debug_frame   0x00000000       0x20 /Applications/STM32CubeIDE.app/Contents/Eclipse/plugins/com.st.stm32cube.ide.mcu.externaltools.gnu-tools-for-stm32.13.3.rel1.macos64_1.0.0.202411102158/tools/bin/../lib/gcc/arm-none-eabi/13.3.1/../../../../arm-none-eabi/lib/thumb/v8-m.main+fp/hard/libc_nano.a(libc_a-memset.o)
 .debug_frame   0x00000020       0x2c /Applications/STM32CubeIDE.app/Contents/Eclipse/plugins/com.st.stm32cube.ide.mcu.externaltools.gnu-tools-for-stm32.13.3.rel1.macos64_1.0.0.202411102158/tools/bin/../lib/gcc/arm-none-eabi/13.3.1/../../../../arm-none-eabi/lib/thumb/v8-m.main+fp/hard/libc_nano.a(libc_a-init.o)
